; ModuleID = 'backup-test.bc'
source_filename = "backup-test.cc"
target datalayout = "e-m:e-i64:64-f80:128-n8:16:32:64-S128"
target triple = "x86_64-pc-linux-gnu"

%"class.std::ios_base::Init" = type { i8 }
%struct.anon = type { %struct.Type1*, %struct.Type2* }
%struct.Type1 = type { [8 x i8] }
%struct.Type2 = type { i32, i32* }

@_ZStL8__ioinit = internal global %"class.std::ios_base::Init" zeroinitializer, align 1, !dbg !0
@__dso_handle = external hidden global i8
@handler = dso_local global i32 (i32)* null, align 8, !dbg !19
@.str = private unnamed_addr constant [30 x i8] c"/////This is a Good function\0A\00", align 1
@.str.1 = private unnamed_addr constant [30 x i8] c"/////This is a Evil function\0A\00", align 1
@gvar = internal global %struct.anon zeroinitializer, align 8, !dbg !27
@.str.2 = private unnamed_addr constant [5 x i8] c"temp\00", align 1
@.str.3 = private unnamed_addr constant [26 x i8] c"crashing path is taken. \0A\00", align 1
@.str.4 = private unnamed_addr constant [38 x i8] c"..........exploiting path is taken. \0A\00", align 1
@llvm.global_ctors = appending global [1 x { i32, void ()*, i8* }] [{ i32, void ()*, i8* } { i32 65535, void ()* @_GLOBAL__sub_I_backup_test.cc, i8* null }]

; Function Attrs: noinline uwtable
define internal void @__cxx_global_var_init() #0 section ".text.startup" !dbg !977 {
  call void @_ZNSt8ios_base4InitC1Ev(%"class.std::ios_base::Init"* @_ZStL8__ioinit), !dbg !978
  %1 = call i32 @__cxa_atexit(void (i8*)* bitcast (void (%"class.std::ios_base::Init"*)* @_ZNSt8ios_base4InitD1Ev to void (i8*)*), i8* getelementptr inbounds (%"class.std::ios_base::Init", %"class.std::ios_base::Init"* @_ZStL8__ioinit, i32 0, i32 0), i8* @__dso_handle) #3, !dbg !978
  ret void, !dbg !978
}

declare dso_local void @_ZNSt8ios_base4InitC1Ev(%"class.std::ios_base::Init"*) unnamed_addr #1

; Function Attrs: nounwind
declare dso_local void @_ZNSt8ios_base4InitD1Ev(%"class.std::ios_base::Init"*) unnamed_addr #2

; Function Attrs: nounwind
declare dso_local i32 @__cxa_atexit(void (i8*)*, i8*, i8*) #3

; Function Attrs: noinline optnone uwtable
define dso_local i32 @_Z8goodFuncPKi(i32*) #4 !dbg !979 {
  %2 = alloca i32*, align 8
  store i32* %0, i32** %2, align 8
  call void @llvm.dbg.declare(metadata i32** %2, metadata !984, metadata !DIExpression()), !dbg !985
  %3 = call i32 (i8*, ...) @printf(i8* getelementptr inbounds ([30 x i8], [30 x i8]* @.str, i64 0, i64 0)), !dbg !986
  ret i32 0, !dbg !987
}

; Function Attrs: nounwind readnone speculatable
declare void @llvm.dbg.declare(metadata, metadata, metadata) #5

declare dso_local i32 @printf(i8*, ...) #1

; Function Attrs: noinline optnone uwtable
define dso_local i32 @_Z7badFuncPKi(i32*) #4 !dbg !988 {
  %2 = alloca i32*, align 8
  store i32* %0, i32** %2, align 8
  call void @llvm.dbg.declare(metadata i32** %2, metadata !989, metadata !DIExpression()), !dbg !990
  %3 = call i32 (i8*, ...) @printf(i8* getelementptr inbounds ([30 x i8], [30 x i8]* @.str.1, i64 0, i64 0)), !dbg !991
  ret i32 0, !dbg !992
}

; Function Attrs: noinline norecurse optnone uwtable
define dso_local i32 @main(i32, i8**) #6 !dbg !993 {
  %3 = alloca i32, align 4
  %4 = alloca i32, align 4
  %5 = alloca i8**, align 8
  %6 = alloca i32, align 4
  %7 = alloca [16 x i8], align 16
  %8 = alloca i8*, align 8
  %9 = alloca i32*, align 8
  store i32 0, i32* %3, align 4
  store i32 %0, i32* %4, align 4
  call void @llvm.dbg.declare(metadata i32* %4, metadata !996, metadata !DIExpression()), !dbg !997
  store i8** %1, i8*** %5, align 8
  call void @llvm.dbg.declare(metadata i8*** %5, metadata !998, metadata !DIExpression()), !dbg !999
  %10 = call i8* @_Znwm(i64 8) #9, !dbg !1000
  %11 = bitcast i8* %10 to %struct.Type1*, !dbg !1000
  store %struct.Type1* %11, %struct.Type1** getelementptr inbounds (%struct.anon, %struct.anon* @gvar, i32 0, i32 0), align 8, !dbg !1001
  %12 = call i8* @_Znwm(i64 16) #9, !dbg !1002
  %13 = bitcast i8* %12 to %struct.Type2*, !dbg !1002
  store %struct.Type2* %13, %struct.Type2** getelementptr inbounds (%struct.anon, %struct.anon* @gvar, i32 0, i32 1), align 8, !dbg !1003
  call void @llvm.dbg.declare(metadata i32* %6, metadata !1004, metadata !DIExpression()), !dbg !1005
  call void @llvm.dbg.declare(metadata [16 x i8]* %7, metadata !1006, metadata !DIExpression()), !dbg !1010
  %14 = getelementptr inbounds [16 x i8], [16 x i8]* %7, i64 0, i64 0, !dbg !1011
  call void @klee_make_symbolic(i8* %14, i64 16, i8* getelementptr inbounds ([5 x i8], [5 x i8]* @.str.2, i64 0, i64 0)), !dbg !1012
  call void @llvm.dbg.declare(metadata i8** %8, metadata !1013, metadata !DIExpression()), !dbg !1014
  %15 = getelementptr inbounds [16 x i8], [16 x i8]* %7, i64 0, i64 0, !dbg !1015
  store i8* %15, i8** %8, align 8, !dbg !1014
  %16 = load %struct.Type2*, %struct.Type2** getelementptr inbounds (%struct.anon, %struct.anon* @gvar, i32 0, i32 1), align 8, !dbg !1016
  %17 = getelementptr inbounds %struct.Type2, %struct.Type2* %16, i32 0, i32 0, !dbg !1017
  %18 = bitcast i32* %17 to i8*, !dbg !1018
  %19 = load i8*, i8** %8, align 8, !dbg !1019
  call void @llvm.memcpy.p0i8.p0i8.i64(i8* align 8 %18, i8* align 1 %19, i64 16, i1 false), !dbg !1018
  %20 = load %struct.Type2*, %struct.Type2** getelementptr inbounds (%struct.anon, %struct.anon* @gvar, i32 0, i32 1), align 8, !dbg !1020
  %21 = getelementptr inbounds %struct.Type2, %struct.Type2* %20, i32 0, i32 0, !dbg !1022
  %22 = load i32, i32* %21, align 8, !dbg !1022
  %23 = icmp ne i32 %22, 0, !dbg !1023
  br i1 %23, label %24, label %30, !dbg !1024

24:                                               ; preds = %2
  %25 = call i32 (i8*, ...) @printf(i8* getelementptr inbounds ([26 x i8], [26 x i8]* @.str.3, i64 0, i64 0)), !dbg !1025
  %26 = load %struct.Type2*, %struct.Type2** getelementptr inbounds (%struct.anon, %struct.anon* @gvar, i32 0, i32 1), align 8, !dbg !1027
  %27 = getelementptr inbounds %struct.Type2, %struct.Type2* %26, i32 0, i32 1, !dbg !1028
  %28 = load i32*, i32** %27, align 8, !dbg !1028
  %29 = load i32, i32* %28, align 4, !dbg !1029
  store i32 %29, i32* %6, align 4, !dbg !1030
  br label %35, !dbg !1031

30:                                               ; preds = %2
  %31 = call i32 (i8*, ...) @printf(i8* getelementptr inbounds ([38 x i8], [38 x i8]* @.str.4, i64 0, i64 0)), !dbg !1032
  %32 = load %struct.Type2*, %struct.Type2** getelementptr inbounds (%struct.anon, %struct.anon* @gvar, i32 0, i32 1), align 8, !dbg !1034
  %33 = getelementptr inbounds %struct.Type2, %struct.Type2* %32, i32 0, i32 1, !dbg !1035
  %34 = load i32*, i32** %33, align 8, !dbg !1035
  store i32 4660, i32* %34, align 4, !dbg !1036
  call void @llvm.dbg.declare(metadata i32** %9, metadata !1037, metadata !DIExpression()), !dbg !1038
  store i32* inttoptr (i64 4660 to i32*), i32** %9, align 8, !dbg !1038
  br label %35

35:                                               ; preds = %30, %24
  %36 = load i32, i32* %6, align 4, !dbg !1039
  ret i32 %36, !dbg !1040
}

; Function Attrs: nobuiltin
declare dso_local noalias i8* @_Znwm(i64) #7

declare dso_local void @klee_make_symbolic(i8*, i64, i8*) #1

; Function Attrs: argmemonly nounwind
declare void @llvm.memcpy.p0i8.p0i8.i64(i8* nocapture writeonly, i8* nocapture readonly, i64, i1 immarg) #8

; Function Attrs: noinline uwtable
define internal void @_GLOBAL__sub_I_backup_test.cc() #0 section ".text.startup" !dbg !1041 {
  call void @__cxx_global_var_init(), !dbg !1043
  ret void
}

attributes #0 = { noinline uwtable "correctly-rounded-divide-sqrt-fp-math"="false" "disable-tail-calls"="false" "less-precise-fpmad"="false" "min-legal-vector-width"="0" "no-frame-pointer-elim"="true" "no-frame-pointer-elim-non-leaf" "no-infs-fp-math"="false" "no-jump-tables"="false" "no-nans-fp-math"="false" "no-signed-zeros-fp-math"="false" "no-trapping-math"="false" "stack-protector-buffer-size"="8" "target-cpu"="x86-64" "target-features"="+cx8,+fxsr,+mmx,+sse,+sse2,+x87" "unsafe-fp-math"="false" "use-soft-float"="false" }
attributes #1 = { "correctly-rounded-divide-sqrt-fp-math"="false" "disable-tail-calls"="false" "less-precise-fpmad"="false" "no-frame-pointer-elim"="true" "no-frame-pointer-elim-non-leaf" "no-infs-fp-math"="false" "no-nans-fp-math"="false" "no-signed-zeros-fp-math"="false" "no-trapping-math"="false" "stack-protector-buffer-size"="8" "target-cpu"="x86-64" "target-features"="+cx8,+fxsr,+mmx,+sse,+sse2,+x87" "unsafe-fp-math"="false" "use-soft-float"="false" }
attributes #2 = { nounwind "correctly-rounded-divide-sqrt-fp-math"="false" "disable-tail-calls"="false" "less-precise-fpmad"="false" "no-frame-pointer-elim"="true" "no-frame-pointer-elim-non-leaf" "no-infs-fp-math"="false" "no-nans-fp-math"="false" "no-signed-zeros-fp-math"="false" "no-trapping-math"="false" "stack-protector-buffer-size"="8" "target-cpu"="x86-64" "target-features"="+cx8,+fxsr,+mmx,+sse,+sse2,+x87" "unsafe-fp-math"="false" "use-soft-float"="false" }
attributes #3 = { nounwind }
attributes #4 = { noinline optnone uwtable "correctly-rounded-divide-sqrt-fp-math"="false" "disable-tail-calls"="false" "less-precise-fpmad"="false" "min-legal-vector-width"="0" "no-frame-pointer-elim"="true" "no-frame-pointer-elim-non-leaf" "no-infs-fp-math"="false" "no-jump-tables"="false" "no-nans-fp-math"="false" "no-signed-zeros-fp-math"="false" "no-trapping-math"="false" "stack-protector-buffer-size"="8" "target-cpu"="x86-64" "target-features"="+cx8,+fxsr,+mmx,+sse,+sse2,+x87" "unsafe-fp-math"="false" "use-soft-float"="false" }
attributes #5 = { nounwind readnone speculatable }
attributes #6 = { noinline norecurse optnone uwtable "correctly-rounded-divide-sqrt-fp-math"="false" "disable-tail-calls"="false" "less-precise-fpmad"="false" "min-legal-vector-width"="0" "no-frame-pointer-elim"="true" "no-frame-pointer-elim-non-leaf" "no-infs-fp-math"="false" "no-jump-tables"="false" "no-nans-fp-math"="false" "no-signed-zeros-fp-math"="false" "no-trapping-math"="false" "stack-protector-buffer-size"="8" "target-cpu"="x86-64" "target-features"="+cx8,+fxsr,+mmx,+sse,+sse2,+x87" "unsafe-fp-math"="false" "use-soft-float"="false" }
attributes #7 = { nobuiltin "correctly-rounded-divide-sqrt-fp-math"="false" "disable-tail-calls"="false" "less-precise-fpmad"="false" "no-frame-pointer-elim"="true" "no-frame-pointer-elim-non-leaf" "no-infs-fp-math"="false" "no-nans-fp-math"="false" "no-signed-zeros-fp-math"="false" "no-trapping-math"="false" "stack-protector-buffer-size"="8" "target-cpu"="x86-64" "target-features"="+cx8,+fxsr,+mmx,+sse,+sse2,+x87" "unsafe-fp-math"="false" "use-soft-float"="false" }
attributes #8 = { argmemonly nounwind }
attributes #9 = { builtin }

!llvm.dbg.cu = !{!21}
!llvm.module.flags = !{!973, !974, !975}
!llvm.ident = !{!976}

!0 = !DIGlobalVariableExpression(var: !1, expr: !DIExpression())
!1 = distinct !DIGlobalVariable(name: "__ioinit", linkageName: "_ZStL8__ioinit", scope: !2, file: !3, line: 74, type: !4, isLocal: true, isDefinition: true)
!2 = !DINamespace(name: "std", scope: null)
!3 = !DIFile(filename: "/usr/bin/../lib/gcc/x86_64-linux-gnu/8/../../../../include/c++/8/iostream", directory: "")
!4 = distinct !DICompositeType(tag: DW_TAG_class_type, name: "Init", scope: !6, file: !5, line: 603, size: 8, flags: DIFlagTypePassByReference | DIFlagNonTrivial, elements: !7, identifier: "_ZTSNSt8ios_base4InitE")
!5 = !DIFile(filename: "/usr/bin/../lib/gcc/x86_64-linux-gnu/8/../../../../include/c++/8/bits/ios_base.h", directory: "")
!6 = !DICompositeType(tag: DW_TAG_class_type, name: "ios_base", scope: !2, file: !5, line: 228, flags: DIFlagFwdDecl)
!7 = !{!8, !12, !14, !18}
!8 = !DIDerivedType(tag: DW_TAG_member, name: "_S_refcount", scope: !4, file: !5, line: 611, baseType: !9, flags: DIFlagStaticMember)
!9 = !DIDerivedType(tag: DW_TAG_typedef, name: "_Atomic_word", file: !10, line: 32, baseType: !11)
!10 = !DIFile(filename: "/usr/bin/../lib/gcc/x86_64-linux-gnu/8/../../../../include/x86_64-linux-gnu/c++/8/bits/atomic_word.h", directory: "")
!11 = !DIBasicType(name: "int", size: 32, encoding: DW_ATE_signed)
!12 = !DIDerivedType(tag: DW_TAG_member, name: "_S_synced_with_stdio", scope: !4, file: !5, line: 612, baseType: !13, flags: DIFlagStaticMember)
!13 = !DIBasicType(name: "bool", size: 8, encoding: DW_ATE_boolean)
!14 = !DISubprogram(name: "Init", scope: !4, file: !5, line: 607, type: !15, scopeLine: 607, flags: DIFlagPublic | DIFlagPrototyped, spFlags: 0)
!15 = !DISubroutineType(types: !16)
!16 = !{null, !17}
!17 = !DIDerivedType(tag: DW_TAG_pointer_type, baseType: !4, size: 64, flags: DIFlagArtificial | DIFlagObjectPointer)
!18 = !DISubprogram(name: "~Init", scope: !4, file: !5, line: 608, type: !15, scopeLine: 608, flags: DIFlagPublic | DIFlagPrototyped, spFlags: 0)
!19 = !DIGlobalVariableExpression(var: !20, expr: !DIExpression())
!20 = distinct !DIGlobalVariable(name: "handler", scope: !21, file: !22, line: 13, type: !972, isLocal: false, isDefinition: true)
!21 = distinct !DICompileUnit(language: DW_LANG_C_plus_plus, file: !22, producer: "clang version 9.0.0-2~ubuntu18.04.2 (tags/RELEASE_900/final)", isOptimized: false, runtimeVersion: 0, emissionKind: FullDebug, enums: !23, retainedTypes: !24, globals: !26, imports: !50, nameTableKind: None)
!22 = !DIFile(filename: "backup-test.cc", directory: "/home/haoxin/haoxin-data/smu-research/klee/examples/exploit-example")
!23 = !{}
!24 = !{!25}
!25 = !DIDerivedType(tag: DW_TAG_pointer_type, baseType: !11, size: 64)
!26 = !{!0, !19, !27}
!27 = !DIGlobalVariableExpression(var: !28, expr: !DIExpression())
!28 = distinct !DIGlobalVariable(name: "gvar", scope: !21, file: !22, line: 17, type: !29, isLocal: true, isDefinition: true)
!29 = distinct !DICompositeType(tag: DW_TAG_structure_type, file: !22, line: 17, size: 128, flags: DIFlagTypePassByValue, elements: !30)
!30 = !{!31, !40}
!31 = !DIDerivedType(tag: DW_TAG_member, name: "obj1", scope: !29, file: !22, line: 17, baseType: !32, size: 64)
!32 = !DIDerivedType(tag: DW_TAG_pointer_type, baseType: !33, size: 64)
!33 = distinct !DICompositeType(tag: DW_TAG_structure_type, name: "Type1", file: !22, line: 7, size: 64, flags: DIFlagTypePassByValue, elements: !34, identifier: "_ZTS5Type1")
!34 = !{!35}
!35 = !DIDerivedType(tag: DW_TAG_member, name: "data", scope: !33, file: !22, line: 7, baseType: !36, size: 64)
!36 = !DICompositeType(tag: DW_TAG_array_type, baseType: !37, size: 64, elements: !38)
!37 = !DIBasicType(name: "char", size: 8, encoding: DW_ATE_signed_char)
!38 = !{!39}
!39 = !DISubrange(count: 8)
!40 = !DIDerivedType(tag: DW_TAG_member, name: "obj2", scope: !29, file: !22, line: 17, baseType: !41, size: 64, offset: 64)
!41 = !DIDerivedType(tag: DW_TAG_pointer_type, baseType: !42, size: 64)
!42 = distinct !DICompositeType(tag: DW_TAG_structure_type, name: "Type2", file: !22, line: 8, size: 128, flags: DIFlagTypePassByValue, elements: !43, identifier: "_ZTS5Type2")
!43 = !{!44, !45, !46}
!44 = !DIDerivedType(tag: DW_TAG_member, name: "status", scope: !42, file: !22, line: 9, baseType: !11, size: 32)
!45 = !DIDerivedType(tag: DW_TAG_member, name: "ptr", scope: !42, file: !22, line: 10, baseType: !25, size: 64, offset: 64)
!46 = !DISubprogram(name: "init", linkageName: "_ZN5Type24initEv", scope: !42, file: !22, line: 11, type: !47, scopeLine: 11, flags: DIFlagPrototyped, spFlags: 0)
!47 = !DISubroutineType(types: !48)
!48 = !{null, !49}
!49 = !DIDerivedType(tag: DW_TAG_pointer_type, baseType: !42, size: 64, flags: DIFlagArtificial | DIFlagObjectPointer)
!50 = !{!51, !57, !61, !68, !72, !77, !79, !86, !90, !94, !108, !112, !116, !120, !124, !129, !133, !137, !141, !145, !153, !157, !161, !163, !167, !171, !176, !182, !186, !190, !192, !200, !204, !212, !214, !218, !222, !226, !230, !235, !240, !245, !246, !247, !248, !250, !251, !252, !253, !254, !255, !256, !258, !259, !260, !261, !262, !263, !264, !269, !270, !271, !272, !273, !274, !275, !276, !277, !278, !279, !280, !281, !282, !283, !284, !285, !286, !287, !288, !289, !290, !291, !292, !293, !348, !352, !369, !372, !377, !386, !391, !395, !399, !403, !407, !409, !411, !415, !421, !425, !431, !437, !439, !443, !447, !451, !455, !466, !468, !472, !476, !480, !482, !486, !490, !494, !496, !498, !502, !510, !514, !518, !522, !524, !530, !532, !538, !542, !546, !550, !554, !558, !562, !564, !566, !570, !574, !578, !580, !584, !588, !590, !592, !596, !600, !604, !608, !609, !610, !611, !612, !613, !614, !615, !616, !617, !618, !622, !629, !633, !636, !639, !642, !644, !646, !648, !650, !652, !654, !656, !659, !661, !666, !670, !673, !676, !678, !680, !682, !684, !686, !688, !690, !692, !695, !697, !701, !705, !710, !714, !716, !718, !720, !722, !724, !726, !728, !730, !732, !734, !736, !738, !740, !743, !745, !749, !755, !760, !764, !766, !768, !770, !772, !779, !783, !787, !791, !795, !799, !804, !808, !810, !814, !820, !824, !829, !831, !833, !837, !841, !843, !845, !847, !849, !853, !855, !857, !861, !865, !869, !873, !877, !881, !883, !887, !891, !895, !899, !901, !903, !907, !911, !912, !913, !914, !915, !916, !922, !925, !926, !928, !930, !932, !934, !938, !940, !942, !944, !946, !948, !950, !952, !954, !958, !962, !964, !968}
!51 = !DIImportedEntity(tag: DW_TAG_imported_declaration, scope: !2, entity: !52, file: !56, line: 52)
!52 = !DISubprogram(name: "abs", scope: !53, file: !53, line: 837, type: !54, flags: DIFlagPrototyped, spFlags: 0)
!53 = !DIFile(filename: "/usr/include/stdlib.h", directory: "")
!54 = !DISubroutineType(types: !55)
!55 = !{!11, !11}
!56 = !DIFile(filename: "/usr/bin/../lib/gcc/x86_64-linux-gnu/8/../../../../include/c++/8/bits/std_abs.h", directory: "")
!57 = !DIImportedEntity(tag: DW_TAG_imported_declaration, scope: !2, entity: !58, file: !60, line: 127)
!58 = !DIDerivedType(tag: DW_TAG_typedef, name: "div_t", file: !53, line: 62, baseType: !59)
!59 = !DICompositeType(tag: DW_TAG_structure_type, file: !53, line: 58, flags: DIFlagFwdDecl, identifier: "_ZTS5div_t")
!60 = !DIFile(filename: "/usr/bin/../lib/gcc/x86_64-linux-gnu/8/../../../../include/c++/8/cstdlib", directory: "")
!61 = !DIImportedEntity(tag: DW_TAG_imported_declaration, scope: !2, entity: !62, file: !60, line: 128)
!62 = !DIDerivedType(tag: DW_TAG_typedef, name: "ldiv_t", file: !53, line: 70, baseType: !63)
!63 = distinct !DICompositeType(tag: DW_TAG_structure_type, file: !53, line: 66, size: 128, flags: DIFlagTypePassByValue, elements: !64, identifier: "_ZTS6ldiv_t")
!64 = !{!65, !67}
!65 = !DIDerivedType(tag: DW_TAG_member, name: "quot", scope: !63, file: !53, line: 68, baseType: !66, size: 64)
!66 = !DIBasicType(name: "long int", size: 64, encoding: DW_ATE_signed)
!67 = !DIDerivedType(tag: DW_TAG_member, name: "rem", scope: !63, file: !53, line: 69, baseType: !66, size: 64, offset: 64)
!68 = !DIImportedEntity(tag: DW_TAG_imported_declaration, scope: !2, entity: !69, file: !60, line: 130)
!69 = !DISubprogram(name: "abort", scope: !53, file: !53, line: 588, type: !70, flags: DIFlagPrototyped | DIFlagNoReturn, spFlags: 0)
!70 = !DISubroutineType(types: !71)
!71 = !{null}
!72 = !DIImportedEntity(tag: DW_TAG_imported_declaration, scope: !2, entity: !73, file: !60, line: 134)
!73 = !DISubprogram(name: "atexit", scope: !53, file: !53, line: 592, type: !74, flags: DIFlagPrototyped, spFlags: 0)
!74 = !DISubroutineType(types: !75)
!75 = !{!11, !76}
!76 = !DIDerivedType(tag: DW_TAG_pointer_type, baseType: !70, size: 64)
!77 = !DIImportedEntity(tag: DW_TAG_imported_declaration, scope: !2, entity: !78, file: !60, line: 137)
!78 = !DISubprogram(name: "at_quick_exit", scope: !53, file: !53, line: 597, type: !74, flags: DIFlagPrototyped, spFlags: 0)
!79 = !DIImportedEntity(tag: DW_TAG_imported_declaration, scope: !2, entity: !80, file: !60, line: 140)
!80 = !DISubprogram(name: "atof", scope: !53, file: !53, line: 101, type: !81, flags: DIFlagPrototyped, spFlags: 0)
!81 = !DISubroutineType(types: !82)
!82 = !{!83, !84}
!83 = !DIBasicType(name: "double", size: 64, encoding: DW_ATE_float)
!84 = !DIDerivedType(tag: DW_TAG_pointer_type, baseType: !85, size: 64)
!85 = !DIDerivedType(tag: DW_TAG_const_type, baseType: !37)
!86 = !DIImportedEntity(tag: DW_TAG_imported_declaration, scope: !2, entity: !87, file: !60, line: 141)
!87 = !DISubprogram(name: "atoi", scope: !53, file: !53, line: 104, type: !88, flags: DIFlagPrototyped, spFlags: 0)
!88 = !DISubroutineType(types: !89)
!89 = !{!11, !84}
!90 = !DIImportedEntity(tag: DW_TAG_imported_declaration, scope: !2, entity: !91, file: !60, line: 142)
!91 = !DISubprogram(name: "atol", scope: !53, file: !53, line: 107, type: !92, flags: DIFlagPrototyped, spFlags: 0)
!92 = !DISubroutineType(types: !93)
!93 = !{!66, !84}
!94 = !DIImportedEntity(tag: DW_TAG_imported_declaration, scope: !2, entity: !95, file: !60, line: 143)
!95 = !DISubprogram(name: "bsearch", scope: !53, file: !53, line: 817, type: !96, flags: DIFlagPrototyped, spFlags: 0)
!96 = !DISubroutineType(types: !97)
!97 = !{!98, !99, !99, !101, !101, !104}
!98 = !DIDerivedType(tag: DW_TAG_pointer_type, baseType: null, size: 64)
!99 = !DIDerivedType(tag: DW_TAG_pointer_type, baseType: !100, size: 64)
!100 = !DIDerivedType(tag: DW_TAG_const_type, baseType: null)
!101 = !DIDerivedType(tag: DW_TAG_typedef, name: "size_t", file: !102, line: 46, baseType: !103)
!102 = !DIFile(filename: "/usr/lib/llvm-9/lib/clang/9.0.0/include/stddef.h", directory: "")
!103 = !DIBasicType(name: "long unsigned int", size: 64, encoding: DW_ATE_unsigned)
!104 = !DIDerivedType(tag: DW_TAG_typedef, name: "__compar_fn_t", file: !53, line: 805, baseType: !105)
!105 = !DIDerivedType(tag: DW_TAG_pointer_type, baseType: !106, size: 64)
!106 = !DISubroutineType(types: !107)
!107 = !{!11, !99, !99}
!108 = !DIImportedEntity(tag: DW_TAG_imported_declaration, scope: !2, entity: !109, file: !60, line: 144)
!109 = !DISubprogram(name: "calloc", scope: !53, file: !53, line: 541, type: !110, flags: DIFlagPrototyped, spFlags: 0)
!110 = !DISubroutineType(types: !111)
!111 = !{!98, !101, !101}
!112 = !DIImportedEntity(tag: DW_TAG_imported_declaration, scope: !2, entity: !113, file: !60, line: 145)
!113 = !DISubprogram(name: "div", scope: !53, file: !53, line: 849, type: !114, flags: DIFlagPrototyped, spFlags: 0)
!114 = !DISubroutineType(types: !115)
!115 = !{!58, !11, !11}
!116 = !DIImportedEntity(tag: DW_TAG_imported_declaration, scope: !2, entity: !117, file: !60, line: 146)
!117 = !DISubprogram(name: "exit", scope: !53, file: !53, line: 614, type: !118, flags: DIFlagPrototyped | DIFlagNoReturn, spFlags: 0)
!118 = !DISubroutineType(types: !119)
!119 = !{null, !11}
!120 = !DIImportedEntity(tag: DW_TAG_imported_declaration, scope: !2, entity: !121, file: !60, line: 147)
!121 = !DISubprogram(name: "free", scope: !53, file: !53, line: 563, type: !122, flags: DIFlagPrototyped, spFlags: 0)
!122 = !DISubroutineType(types: !123)
!123 = !{null, !98}
!124 = !DIImportedEntity(tag: DW_TAG_imported_declaration, scope: !2, entity: !125, file: !60, line: 148)
!125 = !DISubprogram(name: "getenv", scope: !53, file: !53, line: 631, type: !126, flags: DIFlagPrototyped, spFlags: 0)
!126 = !DISubroutineType(types: !127)
!127 = !{!128, !84}
!128 = !DIDerivedType(tag: DW_TAG_pointer_type, baseType: !37, size: 64)
!129 = !DIImportedEntity(tag: DW_TAG_imported_declaration, scope: !2, entity: !130, file: !60, line: 149)
!130 = !DISubprogram(name: "labs", scope: !53, file: !53, line: 838, type: !131, flags: DIFlagPrototyped, spFlags: 0)
!131 = !DISubroutineType(types: !132)
!132 = !{!66, !66}
!133 = !DIImportedEntity(tag: DW_TAG_imported_declaration, scope: !2, entity: !134, file: !60, line: 150)
!134 = !DISubprogram(name: "ldiv", scope: !53, file: !53, line: 851, type: !135, flags: DIFlagPrototyped, spFlags: 0)
!135 = !DISubroutineType(types: !136)
!136 = !{!62, !66, !66}
!137 = !DIImportedEntity(tag: DW_TAG_imported_declaration, scope: !2, entity: !138, file: !60, line: 151)
!138 = !DISubprogram(name: "malloc", scope: !53, file: !53, line: 539, type: !139, flags: DIFlagPrototyped, spFlags: 0)
!139 = !DISubroutineType(types: !140)
!140 = !{!98, !101}
!141 = !DIImportedEntity(tag: DW_TAG_imported_declaration, scope: !2, entity: !142, file: !60, line: 153)
!142 = !DISubprogram(name: "mblen", scope: !53, file: !53, line: 919, type: !143, flags: DIFlagPrototyped, spFlags: 0)
!143 = !DISubroutineType(types: !144)
!144 = !{!11, !84, !101}
!145 = !DIImportedEntity(tag: DW_TAG_imported_declaration, scope: !2, entity: !146, file: !60, line: 154)
!146 = !DISubprogram(name: "mbstowcs", scope: !53, file: !53, line: 930, type: !147, flags: DIFlagPrototyped, spFlags: 0)
!147 = !DISubroutineType(types: !148)
!148 = !{!101, !149, !152, !101}
!149 = !DIDerivedType(tag: DW_TAG_restrict_type, baseType: !150)
!150 = !DIDerivedType(tag: DW_TAG_pointer_type, baseType: !151, size: 64)
!151 = !DIBasicType(name: "wchar_t", size: 32, encoding: DW_ATE_signed)
!152 = !DIDerivedType(tag: DW_TAG_restrict_type, baseType: !84)
!153 = !DIImportedEntity(tag: DW_TAG_imported_declaration, scope: !2, entity: !154, file: !60, line: 155)
!154 = !DISubprogram(name: "mbtowc", scope: !53, file: !53, line: 922, type: !155, flags: DIFlagPrototyped, spFlags: 0)
!155 = !DISubroutineType(types: !156)
!156 = !{!11, !149, !152, !101}
!157 = !DIImportedEntity(tag: DW_TAG_imported_declaration, scope: !2, entity: !158, file: !60, line: 157)
!158 = !DISubprogram(name: "qsort", scope: !53, file: !53, line: 827, type: !159, flags: DIFlagPrototyped, spFlags: 0)
!159 = !DISubroutineType(types: !160)
!160 = !{null, !98, !101, !101, !104}
!161 = !DIImportedEntity(tag: DW_TAG_imported_declaration, scope: !2, entity: !162, file: !60, line: 160)
!162 = !DISubprogram(name: "quick_exit", scope: !53, file: !53, line: 620, type: !118, flags: DIFlagPrototyped | DIFlagNoReturn, spFlags: 0)
!163 = !DIImportedEntity(tag: DW_TAG_imported_declaration, scope: !2, entity: !164, file: !60, line: 163)
!164 = !DISubprogram(name: "rand", scope: !53, file: !53, line: 453, type: !165, flags: DIFlagPrototyped, spFlags: 0)
!165 = !DISubroutineType(types: !166)
!166 = !{!11}
!167 = !DIImportedEntity(tag: DW_TAG_imported_declaration, scope: !2, entity: !168, file: !60, line: 164)
!168 = !DISubprogram(name: "realloc", scope: !53, file: !53, line: 549, type: !169, flags: DIFlagPrototyped, spFlags: 0)
!169 = !DISubroutineType(types: !170)
!170 = !{!98, !98, !101}
!171 = !DIImportedEntity(tag: DW_TAG_imported_declaration, scope: !2, entity: !172, file: !60, line: 165)
!172 = !DISubprogram(name: "srand", scope: !53, file: !53, line: 455, type: !173, flags: DIFlagPrototyped, spFlags: 0)
!173 = !DISubroutineType(types: !174)
!174 = !{null, !175}
!175 = !DIBasicType(name: "unsigned int", size: 32, encoding: DW_ATE_unsigned)
!176 = !DIImportedEntity(tag: DW_TAG_imported_declaration, scope: !2, entity: !177, file: !60, line: 166)
!177 = !DISubprogram(name: "strtod", scope: !53, file: !53, line: 117, type: !178, flags: DIFlagPrototyped, spFlags: 0)
!178 = !DISubroutineType(types: !179)
!179 = !{!83, !152, !180}
!180 = !DIDerivedType(tag: DW_TAG_restrict_type, baseType: !181)
!181 = !DIDerivedType(tag: DW_TAG_pointer_type, baseType: !128, size: 64)
!182 = !DIImportedEntity(tag: DW_TAG_imported_declaration, scope: !2, entity: !183, file: !60, line: 167)
!183 = !DISubprogram(name: "strtol", scope: !53, file: !53, line: 176, type: !184, flags: DIFlagPrototyped, spFlags: 0)
!184 = !DISubroutineType(types: !185)
!185 = !{!66, !152, !180, !11}
!186 = !DIImportedEntity(tag: DW_TAG_imported_declaration, scope: !2, entity: !187, file: !60, line: 168)
!187 = !DISubprogram(name: "strtoul", scope: !53, file: !53, line: 180, type: !188, flags: DIFlagPrototyped, spFlags: 0)
!188 = !DISubroutineType(types: !189)
!189 = !{!103, !152, !180, !11}
!190 = !DIImportedEntity(tag: DW_TAG_imported_declaration, scope: !2, entity: !191, file: !60, line: 169)
!191 = !DISubprogram(name: "system", scope: !53, file: !53, line: 781, type: !88, flags: DIFlagPrototyped, spFlags: 0)
!192 = !DIImportedEntity(tag: DW_TAG_imported_declaration, scope: !2, entity: !193, file: !60, line: 171)
!193 = !DISubprogram(name: "wcstombs", scope: !53, file: !53, line: 933, type: !194, flags: DIFlagPrototyped, spFlags: 0)
!194 = !DISubroutineType(types: !195)
!195 = !{!101, !196, !197, !101}
!196 = !DIDerivedType(tag: DW_TAG_restrict_type, baseType: !128)
!197 = !DIDerivedType(tag: DW_TAG_restrict_type, baseType: !198)
!198 = !DIDerivedType(tag: DW_TAG_pointer_type, baseType: !199, size: 64)
!199 = !DIDerivedType(tag: DW_TAG_const_type, baseType: !151)
!200 = !DIImportedEntity(tag: DW_TAG_imported_declaration, scope: !2, entity: !201, file: !60, line: 172)
!201 = !DISubprogram(name: "wctomb", scope: !53, file: !53, line: 926, type: !202, flags: DIFlagPrototyped, spFlags: 0)
!202 = !DISubroutineType(types: !203)
!203 = !{!11, !128, !151}
!204 = !DIImportedEntity(tag: DW_TAG_imported_declaration, scope: !205, entity: !206, file: !60, line: 200)
!205 = !DINamespace(name: "__gnu_cxx", scope: null)
!206 = !DIDerivedType(tag: DW_TAG_typedef, name: "lldiv_t", file: !53, line: 80, baseType: !207)
!207 = distinct !DICompositeType(tag: DW_TAG_structure_type, file: !53, line: 76, size: 128, flags: DIFlagTypePassByValue, elements: !208, identifier: "_ZTS7lldiv_t")
!208 = !{!209, !211}
!209 = !DIDerivedType(tag: DW_TAG_member, name: "quot", scope: !207, file: !53, line: 78, baseType: !210, size: 64)
!210 = !DIBasicType(name: "long long int", size: 64, encoding: DW_ATE_signed)
!211 = !DIDerivedType(tag: DW_TAG_member, name: "rem", scope: !207, file: !53, line: 79, baseType: !210, size: 64, offset: 64)
!212 = !DIImportedEntity(tag: DW_TAG_imported_declaration, scope: !205, entity: !213, file: !60, line: 206)
!213 = !DISubprogram(name: "_Exit", scope: !53, file: !53, line: 626, type: !118, flags: DIFlagPrototyped | DIFlagNoReturn, spFlags: 0)
!214 = !DIImportedEntity(tag: DW_TAG_imported_declaration, scope: !205, entity: !215, file: !60, line: 210)
!215 = !DISubprogram(name: "llabs", scope: !53, file: !53, line: 841, type: !216, flags: DIFlagPrototyped, spFlags: 0)
!216 = !DISubroutineType(types: !217)
!217 = !{!210, !210}
!218 = !DIImportedEntity(tag: DW_TAG_imported_declaration, scope: !205, entity: !219, file: !60, line: 216)
!219 = !DISubprogram(name: "lldiv", scope: !53, file: !53, line: 855, type: !220, flags: DIFlagPrototyped, spFlags: 0)
!220 = !DISubroutineType(types: !221)
!221 = !{!206, !210, !210}
!222 = !DIImportedEntity(tag: DW_TAG_imported_declaration, scope: !205, entity: !223, file: !60, line: 227)
!223 = !DISubprogram(name: "atoll", scope: !53, file: !53, line: 112, type: !224, flags: DIFlagPrototyped, spFlags: 0)
!224 = !DISubroutineType(types: !225)
!225 = !{!210, !84}
!226 = !DIImportedEntity(tag: DW_TAG_imported_declaration, scope: !205, entity: !227, file: !60, line: 228)
!227 = !DISubprogram(name: "strtoll", scope: !53, file: !53, line: 200, type: !228, flags: DIFlagPrototyped, spFlags: 0)
!228 = !DISubroutineType(types: !229)
!229 = !{!210, !152, !180, !11}
!230 = !DIImportedEntity(tag: DW_TAG_imported_declaration, scope: !205, entity: !231, file: !60, line: 229)
!231 = !DISubprogram(name: "strtoull", scope: !53, file: !53, line: 205, type: !232, flags: DIFlagPrototyped, spFlags: 0)
!232 = !DISubroutineType(types: !233)
!233 = !{!234, !152, !180, !11}
!234 = !DIBasicType(name: "long long unsigned int", size: 64, encoding: DW_ATE_unsigned)
!235 = !DIImportedEntity(tag: DW_TAG_imported_declaration, scope: !205, entity: !236, file: !60, line: 231)
!236 = !DISubprogram(name: "strtof", scope: !53, file: !53, line: 123, type: !237, flags: DIFlagPrototyped, spFlags: 0)
!237 = !DISubroutineType(types: !238)
!238 = !{!239, !152, !180}
!239 = !DIBasicType(name: "float", size: 32, encoding: DW_ATE_float)
!240 = !DIImportedEntity(tag: DW_TAG_imported_declaration, scope: !205, entity: !241, file: !60, line: 232)
!241 = !DISubprogram(name: "strtold", scope: !53, file: !53, line: 126, type: !242, flags: DIFlagPrototyped, spFlags: 0)
!242 = !DISubroutineType(types: !243)
!243 = !{!244, !152, !180}
!244 = !DIBasicType(name: "long double", size: 128, encoding: DW_ATE_float)
!245 = !DIImportedEntity(tag: DW_TAG_imported_declaration, scope: !2, entity: !206, file: !60, line: 240)
!246 = !DIImportedEntity(tag: DW_TAG_imported_declaration, scope: !2, entity: !213, file: !60, line: 242)
!247 = !DIImportedEntity(tag: DW_TAG_imported_declaration, scope: !2, entity: !215, file: !60, line: 244)
!248 = !DIImportedEntity(tag: DW_TAG_imported_declaration, scope: !2, entity: !249, file: !60, line: 245)
!249 = !DISubprogram(name: "div", linkageName: "_ZN9__gnu_cxx3divExx", scope: !205, file: !60, line: 213, type: !220, flags: DIFlagPrototyped, spFlags: 0)
!250 = !DIImportedEntity(tag: DW_TAG_imported_declaration, scope: !2, entity: !219, file: !60, line: 246)
!251 = !DIImportedEntity(tag: DW_TAG_imported_declaration, scope: !2, entity: !223, file: !60, line: 248)
!252 = !DIImportedEntity(tag: DW_TAG_imported_declaration, scope: !2, entity: !236, file: !60, line: 249)
!253 = !DIImportedEntity(tag: DW_TAG_imported_declaration, scope: !2, entity: !227, file: !60, line: 250)
!254 = !DIImportedEntity(tag: DW_TAG_imported_declaration, scope: !2, entity: !231, file: !60, line: 251)
!255 = !DIImportedEntity(tag: DW_TAG_imported_declaration, scope: !2, entity: !241, file: !60, line: 252)
!256 = !DIImportedEntity(tag: DW_TAG_imported_declaration, scope: !21, entity: !69, file: !257, line: 38)
!257 = !DIFile(filename: "/usr/bin/../lib/gcc/x86_64-linux-gnu/8/../../../../include/c++/8/stdlib.h", directory: "")
!258 = !DIImportedEntity(tag: DW_TAG_imported_declaration, scope: !21, entity: !73, file: !257, line: 39)
!259 = !DIImportedEntity(tag: DW_TAG_imported_declaration, scope: !21, entity: !117, file: !257, line: 40)
!260 = !DIImportedEntity(tag: DW_TAG_imported_declaration, scope: !21, entity: !78, file: !257, line: 43)
!261 = !DIImportedEntity(tag: DW_TAG_imported_declaration, scope: !21, entity: !162, file: !257, line: 46)
!262 = !DIImportedEntity(tag: DW_TAG_imported_declaration, scope: !21, entity: !58, file: !257, line: 51)
!263 = !DIImportedEntity(tag: DW_TAG_imported_declaration, scope: !21, entity: !62, file: !257, line: 52)
!264 = !DIImportedEntity(tag: DW_TAG_imported_declaration, scope: !21, entity: !265, file: !257, line: 54)
!265 = !DISubprogram(name: "abs", linkageName: "_ZSt3absg", scope: !2, file: !56, line: 102, type: !266, flags: DIFlagPrototyped, spFlags: 0)
!266 = !DISubroutineType(types: !267)
!267 = !{!268, !268}
!268 = !DIBasicType(name: "__float128", size: 128, encoding: DW_ATE_float)
!269 = !DIImportedEntity(tag: DW_TAG_imported_declaration, scope: !21, entity: !80, file: !257, line: 55)
!270 = !DIImportedEntity(tag: DW_TAG_imported_declaration, scope: !21, entity: !87, file: !257, line: 56)
!271 = !DIImportedEntity(tag: DW_TAG_imported_declaration, scope: !21, entity: !91, file: !257, line: 57)
!272 = !DIImportedEntity(tag: DW_TAG_imported_declaration, scope: !21, entity: !95, file: !257, line: 58)
!273 = !DIImportedEntity(tag: DW_TAG_imported_declaration, scope: !21, entity: !109, file: !257, line: 59)
!274 = !DIImportedEntity(tag: DW_TAG_imported_declaration, scope: !21, entity: !249, file: !257, line: 60)
!275 = !DIImportedEntity(tag: DW_TAG_imported_declaration, scope: !21, entity: !121, file: !257, line: 61)
!276 = !DIImportedEntity(tag: DW_TAG_imported_declaration, scope: !21, entity: !125, file: !257, line: 62)
!277 = !DIImportedEntity(tag: DW_TAG_imported_declaration, scope: !21, entity: !130, file: !257, line: 63)
!278 = !DIImportedEntity(tag: DW_TAG_imported_declaration, scope: !21, entity: !134, file: !257, line: 64)
!279 = !DIImportedEntity(tag: DW_TAG_imported_declaration, scope: !21, entity: !138, file: !257, line: 65)
!280 = !DIImportedEntity(tag: DW_TAG_imported_declaration, scope: !21, entity: !142, file: !257, line: 67)
!281 = !DIImportedEntity(tag: DW_TAG_imported_declaration, scope: !21, entity: !146, file: !257, line: 68)
!282 = !DIImportedEntity(tag: DW_TAG_imported_declaration, scope: !21, entity: !154, file: !257, line: 69)
!283 = !DIImportedEntity(tag: DW_TAG_imported_declaration, scope: !21, entity: !158, file: !257, line: 71)
!284 = !DIImportedEntity(tag: DW_TAG_imported_declaration, scope: !21, entity: !164, file: !257, line: 72)
!285 = !DIImportedEntity(tag: DW_TAG_imported_declaration, scope: !21, entity: !168, file: !257, line: 73)
!286 = !DIImportedEntity(tag: DW_TAG_imported_declaration, scope: !21, entity: !172, file: !257, line: 74)
!287 = !DIImportedEntity(tag: DW_TAG_imported_declaration, scope: !21, entity: !177, file: !257, line: 75)
!288 = !DIImportedEntity(tag: DW_TAG_imported_declaration, scope: !21, entity: !183, file: !257, line: 76)
!289 = !DIImportedEntity(tag: DW_TAG_imported_declaration, scope: !21, entity: !187, file: !257, line: 77)
!290 = !DIImportedEntity(tag: DW_TAG_imported_declaration, scope: !21, entity: !191, file: !257, line: 78)
!291 = !DIImportedEntity(tag: DW_TAG_imported_declaration, scope: !21, entity: !193, file: !257, line: 80)
!292 = !DIImportedEntity(tag: DW_TAG_imported_declaration, scope: !21, entity: !201, file: !257, line: 81)
!293 = !DIImportedEntity(tag: DW_TAG_imported_declaration, scope: !2, entity: !294, file: !295, line: 57)
!294 = distinct !DICompositeType(tag: DW_TAG_class_type, name: "exception_ptr", scope: !296, file: !295, line: 79, size: 64, flags: DIFlagTypePassByReference | DIFlagNonTrivial, elements: !297, identifier: "_ZTSNSt15__exception_ptr13exception_ptrE")
!295 = !DIFile(filename: "/usr/bin/../lib/gcc/x86_64-linux-gnu/8/../../../../include/c++/8/bits/exception_ptr.h", directory: "")
!296 = !DINamespace(name: "__exception_ptr", scope: !2)
!297 = !{!298, !299, !303, !306, !307, !312, !313, !317, !323, !327, !331, !334, !335, !338, !341}
!298 = !DIDerivedType(tag: DW_TAG_member, name: "_M_exception_object", scope: !294, file: !295, line: 81, baseType: !98, size: 64)
!299 = !DISubprogram(name: "exception_ptr", scope: !294, file: !295, line: 83, type: !300, scopeLine: 83, flags: DIFlagExplicit | DIFlagPrototyped, spFlags: 0)
!300 = !DISubroutineType(types: !301)
!301 = !{null, !302, !98}
!302 = !DIDerivedType(tag: DW_TAG_pointer_type, baseType: !294, size: 64, flags: DIFlagArtificial | DIFlagObjectPointer)
!303 = !DISubprogram(name: "_M_addref", linkageName: "_ZNSt15__exception_ptr13exception_ptr9_M_addrefEv", scope: !294, file: !295, line: 85, type: !304, scopeLine: 85, flags: DIFlagPrototyped, spFlags: 0)
!304 = !DISubroutineType(types: !305)
!305 = !{null, !302}
!306 = !DISubprogram(name: "_M_release", linkageName: "_ZNSt15__exception_ptr13exception_ptr10_M_releaseEv", scope: !294, file: !295, line: 86, type: !304, scopeLine: 86, flags: DIFlagPrototyped, spFlags: 0)
!307 = !DISubprogram(name: "_M_get", linkageName: "_ZNKSt15__exception_ptr13exception_ptr6_M_getEv", scope: !294, file: !295, line: 88, type: !308, scopeLine: 88, flags: DIFlagPrototyped, spFlags: 0)
!308 = !DISubroutineType(types: !309)
!309 = !{!98, !310}
!310 = !DIDerivedType(tag: DW_TAG_pointer_type, baseType: !311, size: 64, flags: DIFlagArtificial | DIFlagObjectPointer)
!311 = !DIDerivedType(tag: DW_TAG_const_type, baseType: !294)
!312 = !DISubprogram(name: "exception_ptr", scope: !294, file: !295, line: 96, type: !304, scopeLine: 96, flags: DIFlagPublic | DIFlagPrototyped, spFlags: 0)
!313 = !DISubprogram(name: "exception_ptr", scope: !294, file: !295, line: 98, type: !314, scopeLine: 98, flags: DIFlagPublic | DIFlagPrototyped, spFlags: 0)
!314 = !DISubroutineType(types: !315)
!315 = !{null, !302, !316}
!316 = !DIDerivedType(tag: DW_TAG_reference_type, baseType: !311, size: 64)
!317 = !DISubprogram(name: "exception_ptr", scope: !294, file: !295, line: 101, type: !318, scopeLine: 101, flags: DIFlagPublic | DIFlagPrototyped, spFlags: 0)
!318 = !DISubroutineType(types: !319)
!319 = !{null, !302, !320}
!320 = !DIDerivedType(tag: DW_TAG_typedef, name: "nullptr_t", scope: !2, file: !321, line: 242, baseType: !322)
!321 = !DIFile(filename: "/usr/bin/../lib/gcc/x86_64-linux-gnu/8/../../../../include/x86_64-linux-gnu/c++/8/bits/c++config.h", directory: "")
!322 = !DIBasicType(tag: DW_TAG_unspecified_type, name: "decltype(nullptr)")
!323 = !DISubprogram(name: "exception_ptr", scope: !294, file: !295, line: 105, type: !324, scopeLine: 105, flags: DIFlagPublic | DIFlagPrototyped, spFlags: 0)
!324 = !DISubroutineType(types: !325)
!325 = !{null, !302, !326}
!326 = !DIDerivedType(tag: DW_TAG_rvalue_reference_type, baseType: !294, size: 64)
!327 = !DISubprogram(name: "operator=", linkageName: "_ZNSt15__exception_ptr13exception_ptraSERKS0_", scope: !294, file: !295, line: 118, type: !328, scopeLine: 118, flags: DIFlagPublic | DIFlagPrototyped, spFlags: 0)
!328 = !DISubroutineType(types: !329)
!329 = !{!330, !302, !316}
!330 = !DIDerivedType(tag: DW_TAG_reference_type, baseType: !294, size: 64)
!331 = !DISubprogram(name: "operator=", linkageName: "_ZNSt15__exception_ptr13exception_ptraSEOS0_", scope: !294, file: !295, line: 122, type: !332, scopeLine: 122, flags: DIFlagPublic | DIFlagPrototyped, spFlags: 0)
!332 = !DISubroutineType(types: !333)
!333 = !{!330, !302, !326}
!334 = !DISubprogram(name: "~exception_ptr", scope: !294, file: !295, line: 129, type: !304, scopeLine: 129, flags: DIFlagPublic | DIFlagPrototyped, spFlags: 0)
!335 = !DISubprogram(name: "swap", linkageName: "_ZNSt15__exception_ptr13exception_ptr4swapERS0_", scope: !294, file: !295, line: 132, type: !336, scopeLine: 132, flags: DIFlagPublic | DIFlagPrototyped, spFlags: 0)
!336 = !DISubroutineType(types: !337)
!337 = !{null, !302, !330}
!338 = !DISubprogram(name: "operator bool", linkageName: "_ZNKSt15__exception_ptr13exception_ptrcvbEv", scope: !294, file: !295, line: 144, type: !339, scopeLine: 144, flags: DIFlagPublic | DIFlagExplicit | DIFlagPrototyped, spFlags: 0)
!339 = !DISubroutineType(types: !340)
!340 = !{!13, !310}
!341 = !DISubprogram(name: "__cxa_exception_type", linkageName: "_ZNKSt15__exception_ptr13exception_ptr20__cxa_exception_typeEv", scope: !294, file: !295, line: 153, type: !342, scopeLine: 153, flags: DIFlagPublic | DIFlagPrototyped, spFlags: 0)
!342 = !DISubroutineType(types: !343)
!343 = !{!344, !310}
!344 = !DIDerivedType(tag: DW_TAG_pointer_type, baseType: !345, size: 64)
!345 = !DIDerivedType(tag: DW_TAG_const_type, baseType: !346)
!346 = !DICompositeType(tag: DW_TAG_class_type, name: "type_info", scope: !2, file: !347, line: 88, flags: DIFlagFwdDecl)
!347 = !DIFile(filename: "/usr/bin/../lib/gcc/x86_64-linux-gnu/8/../../../../include/c++/8/typeinfo", directory: "")
!348 = !DIImportedEntity(tag: DW_TAG_imported_declaration, scope: !296, entity: !349, file: !295, line: 73)
!349 = !DISubprogram(name: "rethrow_exception", linkageName: "_ZSt17rethrow_exceptionNSt15__exception_ptr13exception_ptrE", scope: !2, file: !295, line: 69, type: !350, flags: DIFlagPrototyped | DIFlagNoReturn, spFlags: 0)
!350 = !DISubroutineType(types: !351)
!351 = !{null, !294}
!352 = !DIImportedEntity(tag: DW_TAG_imported_declaration, scope: !2, entity: !353, file: !368, line: 64)
!353 = !DIDerivedType(tag: DW_TAG_typedef, name: "mbstate_t", file: !354, line: 6, baseType: !355)
!354 = !DIFile(filename: "/usr/include/x86_64-linux-gnu/bits/types/mbstate_t.h", directory: "")
!355 = !DIDerivedType(tag: DW_TAG_typedef, name: "__mbstate_t", file: !356, line: 21, baseType: !357)
!356 = !DIFile(filename: "/usr/include/x86_64-linux-gnu/bits/types/__mbstate_t.h", directory: "")
!357 = distinct !DICompositeType(tag: DW_TAG_structure_type, file: !356, line: 13, size: 64, flags: DIFlagTypePassByValue, elements: !358, identifier: "_ZTS11__mbstate_t")
!358 = !{!359, !360}
!359 = !DIDerivedType(tag: DW_TAG_member, name: "__count", scope: !357, file: !356, line: 15, baseType: !11, size: 32)
!360 = !DIDerivedType(tag: DW_TAG_member, name: "__value", scope: !357, file: !356, line: 20, baseType: !361, size: 32, offset: 32)
!361 = distinct !DICompositeType(tag: DW_TAG_union_type, scope: !357, file: !356, line: 16, size: 32, flags: DIFlagTypePassByValue, elements: !362, identifier: "_ZTSN11__mbstate_tUt_E")
!362 = !{!363, !364}
!363 = !DIDerivedType(tag: DW_TAG_member, name: "__wch", scope: !361, file: !356, line: 18, baseType: !175, size: 32)
!364 = !DIDerivedType(tag: DW_TAG_member, name: "__wchb", scope: !361, file: !356, line: 19, baseType: !365, size: 32)
!365 = !DICompositeType(tag: DW_TAG_array_type, baseType: !37, size: 32, elements: !366)
!366 = !{!367}
!367 = !DISubrange(count: 4)
!368 = !DIFile(filename: "/usr/bin/../lib/gcc/x86_64-linux-gnu/8/../../../../include/c++/8/cwchar", directory: "")
!369 = !DIImportedEntity(tag: DW_TAG_imported_declaration, scope: !2, entity: !370, file: !368, line: 139)
!370 = !DIDerivedType(tag: DW_TAG_typedef, name: "wint_t", file: !371, line: 20, baseType: !175)
!371 = !DIFile(filename: "/usr/include/x86_64-linux-gnu/bits/types/wint_t.h", directory: "")
!372 = !DIImportedEntity(tag: DW_TAG_imported_declaration, scope: !2, entity: !373, file: !368, line: 141)
!373 = !DISubprogram(name: "btowc", scope: !374, file: !374, line: 284, type: !375, flags: DIFlagPrototyped, spFlags: 0)
!374 = !DIFile(filename: "/usr/include/wchar.h", directory: "")
!375 = !DISubroutineType(types: !376)
!376 = !{!370, !11}
!377 = !DIImportedEntity(tag: DW_TAG_imported_declaration, scope: !2, entity: !378, file: !368, line: 142)
!378 = !DISubprogram(name: "fgetwc", scope: !374, file: !374, line: 727, type: !379, flags: DIFlagPrototyped, spFlags: 0)
!379 = !DISubroutineType(types: !380)
!380 = !{!370, !381}
!381 = !DIDerivedType(tag: DW_TAG_pointer_type, baseType: !382, size: 64)
!382 = !DIDerivedType(tag: DW_TAG_typedef, name: "__FILE", file: !383, line: 5, baseType: !384)
!383 = !DIFile(filename: "/usr/include/x86_64-linux-gnu/bits/types/__FILE.h", directory: "")
!384 = !DICompositeType(tag: DW_TAG_structure_type, name: "_IO_FILE", file: !385, line: 245, flags: DIFlagFwdDecl, identifier: "_ZTS8_IO_FILE")
!385 = !DIFile(filename: "/usr/include/x86_64-linux-gnu/bits/libio.h", directory: "")
!386 = !DIImportedEntity(tag: DW_TAG_imported_declaration, scope: !2, entity: !387, file: !368, line: 143)
!387 = !DISubprogram(name: "fgetws", scope: !374, file: !374, line: 756, type: !388, flags: DIFlagPrototyped, spFlags: 0)
!388 = !DISubroutineType(types: !389)
!389 = !{!150, !149, !11, !390}
!390 = !DIDerivedType(tag: DW_TAG_restrict_type, baseType: !381)
!391 = !DIImportedEntity(tag: DW_TAG_imported_declaration, scope: !2, entity: !392, file: !368, line: 144)
!392 = !DISubprogram(name: "fputwc", scope: !374, file: !374, line: 741, type: !393, flags: DIFlagPrototyped, spFlags: 0)
!393 = !DISubroutineType(types: !394)
!394 = !{!370, !151, !381}
!395 = !DIImportedEntity(tag: DW_TAG_imported_declaration, scope: !2, entity: !396, file: !368, line: 145)
!396 = !DISubprogram(name: "fputws", scope: !374, file: !374, line: 763, type: !397, flags: DIFlagPrototyped, spFlags: 0)
!397 = !DISubroutineType(types: !398)
!398 = !{!11, !197, !390}
!399 = !DIImportedEntity(tag: DW_TAG_imported_declaration, scope: !2, entity: !400, file: !368, line: 146)
!400 = !DISubprogram(name: "fwide", scope: !374, file: !374, line: 573, type: !401, flags: DIFlagPrototyped, spFlags: 0)
!401 = !DISubroutineType(types: !402)
!402 = !{!11, !381, !11}
!403 = !DIImportedEntity(tag: DW_TAG_imported_declaration, scope: !2, entity: !404, file: !368, line: 147)
!404 = !DISubprogram(name: "fwprintf", scope: !374, file: !374, line: 580, type: !405, flags: DIFlagPrototyped, spFlags: 0)
!405 = !DISubroutineType(types: !406)
!406 = !{!11, !390, !197, null}
!407 = !DIImportedEntity(tag: DW_TAG_imported_declaration, scope: !2, entity: !408, file: !368, line: 148)
!408 = !DISubprogram(name: "fwscanf", scope: !374, file: !374, line: 621, type: !405, flags: DIFlagPrototyped, spFlags: 0)
!409 = !DIImportedEntity(tag: DW_TAG_imported_declaration, scope: !2, entity: !410, file: !368, line: 149)
!410 = !DISubprogram(name: "getwc", scope: !374, file: !374, line: 728, type: !379, flags: DIFlagPrototyped, spFlags: 0)
!411 = !DIImportedEntity(tag: DW_TAG_imported_declaration, scope: !2, entity: !412, file: !368, line: 150)
!412 = !DISubprogram(name: "getwchar", scope: !374, file: !374, line: 734, type: !413, flags: DIFlagPrototyped, spFlags: 0)
!413 = !DISubroutineType(types: !414)
!414 = !{!370}
!415 = !DIImportedEntity(tag: DW_TAG_imported_declaration, scope: !2, entity: !416, file: !368, line: 151)
!416 = !DISubprogram(name: "mbrlen", scope: !374, file: !374, line: 307, type: !417, flags: DIFlagPrototyped, spFlags: 0)
!417 = !DISubroutineType(types: !418)
!418 = !{!101, !152, !101, !419}
!419 = !DIDerivedType(tag: DW_TAG_restrict_type, baseType: !420)
!420 = !DIDerivedType(tag: DW_TAG_pointer_type, baseType: !353, size: 64)
!421 = !DIImportedEntity(tag: DW_TAG_imported_declaration, scope: !2, entity: !422, file: !368, line: 152)
!422 = !DISubprogram(name: "mbrtowc", scope: !374, file: !374, line: 296, type: !423, flags: DIFlagPrototyped, spFlags: 0)
!423 = !DISubroutineType(types: !424)
!424 = !{!101, !149, !152, !101, !419}
!425 = !DIImportedEntity(tag: DW_TAG_imported_declaration, scope: !2, entity: !426, file: !368, line: 153)
!426 = !DISubprogram(name: "mbsinit", scope: !374, file: !374, line: 292, type: !427, flags: DIFlagPrototyped, spFlags: 0)
!427 = !DISubroutineType(types: !428)
!428 = !{!11, !429}
!429 = !DIDerivedType(tag: DW_TAG_pointer_type, baseType: !430, size: 64)
!430 = !DIDerivedType(tag: DW_TAG_const_type, baseType: !353)
!431 = !DIImportedEntity(tag: DW_TAG_imported_declaration, scope: !2, entity: !432, file: !368, line: 154)
!432 = !DISubprogram(name: "mbsrtowcs", scope: !374, file: !374, line: 337, type: !433, flags: DIFlagPrototyped, spFlags: 0)
!433 = !DISubroutineType(types: !434)
!434 = !{!101, !149, !435, !101, !419}
!435 = !DIDerivedType(tag: DW_TAG_restrict_type, baseType: !436)
!436 = !DIDerivedType(tag: DW_TAG_pointer_type, baseType: !84, size: 64)
!437 = !DIImportedEntity(tag: DW_TAG_imported_declaration, scope: !2, entity: !438, file: !368, line: 155)
!438 = !DISubprogram(name: "putwc", scope: !374, file: !374, line: 742, type: !393, flags: DIFlagPrototyped, spFlags: 0)
!439 = !DIImportedEntity(tag: DW_TAG_imported_declaration, scope: !2, entity: !440, file: !368, line: 156)
!440 = !DISubprogram(name: "putwchar", scope: !374, file: !374, line: 748, type: !441, flags: DIFlagPrototyped, spFlags: 0)
!441 = !DISubroutineType(types: !442)
!442 = !{!370, !151}
!443 = !DIImportedEntity(tag: DW_TAG_imported_declaration, scope: !2, entity: !444, file: !368, line: 158)
!444 = !DISubprogram(name: "swprintf", scope: !374, file: !374, line: 590, type: !445, flags: DIFlagPrototyped, spFlags: 0)
!445 = !DISubroutineType(types: !446)
!446 = !{!11, !149, !101, !197, null}
!447 = !DIImportedEntity(tag: DW_TAG_imported_declaration, scope: !2, entity: !448, file: !368, line: 160)
!448 = !DISubprogram(name: "swscanf", scope: !374, file: !374, line: 631, type: !449, flags: DIFlagPrototyped, spFlags: 0)
!449 = !DISubroutineType(types: !450)
!450 = !{!11, !197, !197, null}
!451 = !DIImportedEntity(tag: DW_TAG_imported_declaration, scope: !2, entity: !452, file: !368, line: 161)
!452 = !DISubprogram(name: "ungetwc", scope: !374, file: !374, line: 771, type: !453, flags: DIFlagPrototyped, spFlags: 0)
!453 = !DISubroutineType(types: !454)
!454 = !{!370, !370, !381}
!455 = !DIImportedEntity(tag: DW_TAG_imported_declaration, scope: !2, entity: !456, file: !368, line: 162)
!456 = !DISubprogram(name: "vfwprintf", scope: !374, file: !374, line: 598, type: !457, flags: DIFlagPrototyped, spFlags: 0)
!457 = !DISubroutineType(types: !458)
!458 = !{!11, !390, !197, !459}
!459 = !DIDerivedType(tag: DW_TAG_pointer_type, baseType: !460, size: 64)
!460 = distinct !DICompositeType(tag: DW_TAG_structure_type, name: "__va_list_tag", file: !22, size: 192, flags: DIFlagTypePassByValue, elements: !461, identifier: "_ZTS13__va_list_tag")
!461 = !{!462, !463, !464, !465}
!462 = !DIDerivedType(tag: DW_TAG_member, name: "gp_offset", scope: !460, file: !22, baseType: !175, size: 32)
!463 = !DIDerivedType(tag: DW_TAG_member, name: "fp_offset", scope: !460, file: !22, baseType: !175, size: 32, offset: 32)
!464 = !DIDerivedType(tag: DW_TAG_member, name: "overflow_arg_area", scope: !460, file: !22, baseType: !98, size: 64, offset: 64)
!465 = !DIDerivedType(tag: DW_TAG_member, name: "reg_save_area", scope: !460, file: !22, baseType: !98, size: 64, offset: 128)
!466 = !DIImportedEntity(tag: DW_TAG_imported_declaration, scope: !2, entity: !467, file: !368, line: 164)
!467 = !DISubprogram(name: "vfwscanf", scope: !374, file: !374, line: 673, type: !457, flags: DIFlagPrototyped, spFlags: 0)
!468 = !DIImportedEntity(tag: DW_TAG_imported_declaration, scope: !2, entity: !469, file: !368, line: 167)
!469 = !DISubprogram(name: "vswprintf", scope: !374, file: !374, line: 611, type: !470, flags: DIFlagPrototyped, spFlags: 0)
!470 = !DISubroutineType(types: !471)
!471 = !{!11, !149, !101, !197, !459}
!472 = !DIImportedEntity(tag: DW_TAG_imported_declaration, scope: !2, entity: !473, file: !368, line: 170)
!473 = !DISubprogram(name: "vswscanf", scope: !374, file: !374, line: 685, type: !474, flags: DIFlagPrototyped, spFlags: 0)
!474 = !DISubroutineType(types: !475)
!475 = !{!11, !197, !197, !459}
!476 = !DIImportedEntity(tag: DW_TAG_imported_declaration, scope: !2, entity: !477, file: !368, line: 172)
!477 = !DISubprogram(name: "vwprintf", scope: !374, file: !374, line: 606, type: !478, flags: DIFlagPrototyped, spFlags: 0)
!478 = !DISubroutineType(types: !479)
!479 = !{!11, !197, !459}
!480 = !DIImportedEntity(tag: DW_TAG_imported_declaration, scope: !2, entity: !481, file: !368, line: 174)
!481 = !DISubprogram(name: "vwscanf", scope: !374, file: !374, line: 681, type: !478, flags: DIFlagPrototyped, spFlags: 0)
!482 = !DIImportedEntity(tag: DW_TAG_imported_declaration, scope: !2, entity: !483, file: !368, line: 176)
!483 = !DISubprogram(name: "wcrtomb", scope: !374, file: !374, line: 301, type: !484, flags: DIFlagPrototyped, spFlags: 0)
!484 = !DISubroutineType(types: !485)
!485 = !{!101, !196, !151, !419}
!486 = !DIImportedEntity(tag: DW_TAG_imported_declaration, scope: !2, entity: !487, file: !368, line: 177)
!487 = !DISubprogram(name: "wcscat", scope: !374, file: !374, line: 97, type: !488, flags: DIFlagPrototyped, spFlags: 0)
!488 = !DISubroutineType(types: !489)
!489 = !{!150, !149, !197}
!490 = !DIImportedEntity(tag: DW_TAG_imported_declaration, scope: !2, entity: !491, file: !368, line: 178)
!491 = !DISubprogram(name: "wcscmp", scope: !374, file: !374, line: 106, type: !492, flags: DIFlagPrototyped, spFlags: 0)
!492 = !DISubroutineType(types: !493)
!493 = !{!11, !198, !198}
!494 = !DIImportedEntity(tag: DW_TAG_imported_declaration, scope: !2, entity: !495, file: !368, line: 179)
!495 = !DISubprogram(name: "wcscoll", scope: !374, file: !374, line: 131, type: !492, flags: DIFlagPrototyped, spFlags: 0)
!496 = !DIImportedEntity(tag: DW_TAG_imported_declaration, scope: !2, entity: !497, file: !368, line: 180)
!497 = !DISubprogram(name: "wcscpy", scope: !374, file: !374, line: 87, type: !488, flags: DIFlagPrototyped, spFlags: 0)
!498 = !DIImportedEntity(tag: DW_TAG_imported_declaration, scope: !2, entity: !499, file: !368, line: 181)
!499 = !DISubprogram(name: "wcscspn", scope: !374, file: !374, line: 187, type: !500, flags: DIFlagPrototyped, spFlags: 0)
!500 = !DISubroutineType(types: !501)
!501 = !{!101, !198, !198}
!502 = !DIImportedEntity(tag: DW_TAG_imported_declaration, scope: !2, entity: !503, file: !368, line: 182)
!503 = !DISubprogram(name: "wcsftime", scope: !374, file: !374, line: 835, type: !504, flags: DIFlagPrototyped, spFlags: 0)
!504 = !DISubroutineType(types: !505)
!505 = !{!101, !149, !101, !197, !506}
!506 = !DIDerivedType(tag: DW_TAG_restrict_type, baseType: !507)
!507 = !DIDerivedType(tag: DW_TAG_pointer_type, baseType: !508, size: 64)
!508 = !DIDerivedType(tag: DW_TAG_const_type, baseType: !509)
!509 = !DICompositeType(tag: DW_TAG_structure_type, name: "tm", file: !374, line: 83, flags: DIFlagFwdDecl, identifier: "_ZTS2tm")
!510 = !DIImportedEntity(tag: DW_TAG_imported_declaration, scope: !2, entity: !511, file: !368, line: 183)
!511 = !DISubprogram(name: "wcslen", scope: !374, file: !374, line: 222, type: !512, flags: DIFlagPrototyped, spFlags: 0)
!512 = !DISubroutineType(types: !513)
!513 = !{!101, !198}
!514 = !DIImportedEntity(tag: DW_TAG_imported_declaration, scope: !2, entity: !515, file: !368, line: 184)
!515 = !DISubprogram(name: "wcsncat", scope: !374, file: !374, line: 101, type: !516, flags: DIFlagPrototyped, spFlags: 0)
!516 = !DISubroutineType(types: !517)
!517 = !{!150, !149, !197, !101}
!518 = !DIImportedEntity(tag: DW_TAG_imported_declaration, scope: !2, entity: !519, file: !368, line: 185)
!519 = !DISubprogram(name: "wcsncmp", scope: !374, file: !374, line: 109, type: !520, flags: DIFlagPrototyped, spFlags: 0)
!520 = !DISubroutineType(types: !521)
!521 = !{!11, !198, !198, !101}
!522 = !DIImportedEntity(tag: DW_TAG_imported_declaration, scope: !2, entity: !523, file: !368, line: 186)
!523 = !DISubprogram(name: "wcsncpy", scope: !374, file: !374, line: 92, type: !516, flags: DIFlagPrototyped, spFlags: 0)
!524 = !DIImportedEntity(tag: DW_TAG_imported_declaration, scope: !2, entity: !525, file: !368, line: 187)
!525 = !DISubprogram(name: "wcsrtombs", scope: !374, file: !374, line: 343, type: !526, flags: DIFlagPrototyped, spFlags: 0)
!526 = !DISubroutineType(types: !527)
!527 = !{!101, !196, !528, !101, !419}
!528 = !DIDerivedType(tag: DW_TAG_restrict_type, baseType: !529)
!529 = !DIDerivedType(tag: DW_TAG_pointer_type, baseType: !198, size: 64)
!530 = !DIImportedEntity(tag: DW_TAG_imported_declaration, scope: !2, entity: !531, file: !368, line: 188)
!531 = !DISubprogram(name: "wcsspn", scope: !374, file: !374, line: 191, type: !500, flags: DIFlagPrototyped, spFlags: 0)
!532 = !DIImportedEntity(tag: DW_TAG_imported_declaration, scope: !2, entity: !533, file: !368, line: 189)
!533 = !DISubprogram(name: "wcstod", scope: !374, file: !374, line: 377, type: !534, flags: DIFlagPrototyped, spFlags: 0)
!534 = !DISubroutineType(types: !535)
!535 = !{!83, !197, !536}
!536 = !DIDerivedType(tag: DW_TAG_restrict_type, baseType: !537)
!537 = !DIDerivedType(tag: DW_TAG_pointer_type, baseType: !150, size: 64)
!538 = !DIImportedEntity(tag: DW_TAG_imported_declaration, scope: !2, entity: !539, file: !368, line: 191)
!539 = !DISubprogram(name: "wcstof", scope: !374, file: !374, line: 382, type: !540, flags: DIFlagPrototyped, spFlags: 0)
!540 = !DISubroutineType(types: !541)
!541 = !{!239, !197, !536}
!542 = !DIImportedEntity(tag: DW_TAG_imported_declaration, scope: !2, entity: !543, file: !368, line: 193)
!543 = !DISubprogram(name: "wcstok", scope: !374, file: !374, line: 217, type: !544, flags: DIFlagPrototyped, spFlags: 0)
!544 = !DISubroutineType(types: !545)
!545 = !{!150, !149, !197, !536}
!546 = !DIImportedEntity(tag: DW_TAG_imported_declaration, scope: !2, entity: !547, file: !368, line: 194)
!547 = !DISubprogram(name: "wcstol", scope: !374, file: !374, line: 428, type: !548, flags: DIFlagPrototyped, spFlags: 0)
!548 = !DISubroutineType(types: !549)
!549 = !{!66, !197, !536, !11}
!550 = !DIImportedEntity(tag: DW_TAG_imported_declaration, scope: !2, entity: !551, file: !368, line: 195)
!551 = !DISubprogram(name: "wcstoul", scope: !374, file: !374, line: 433, type: !552, flags: DIFlagPrototyped, spFlags: 0)
!552 = !DISubroutineType(types: !553)
!553 = !{!103, !197, !536, !11}
!554 = !DIImportedEntity(tag: DW_TAG_imported_declaration, scope: !2, entity: !555, file: !368, line: 196)
!555 = !DISubprogram(name: "wcsxfrm", scope: !374, file: !374, line: 135, type: !556, flags: DIFlagPrototyped, spFlags: 0)
!556 = !DISubroutineType(types: !557)
!557 = !{!101, !149, !197, !101}
!558 = !DIImportedEntity(tag: DW_TAG_imported_declaration, scope: !2, entity: !559, file: !368, line: 197)
!559 = !DISubprogram(name: "wctob", scope: !374, file: !374, line: 288, type: !560, flags: DIFlagPrototyped, spFlags: 0)
!560 = !DISubroutineType(types: !561)
!561 = !{!11, !370}
!562 = !DIImportedEntity(tag: DW_TAG_imported_declaration, scope: !2, entity: !563, file: !368, line: 198)
!563 = !DISubprogram(name: "wmemcmp", scope: !374, file: !374, line: 258, type: !520, flags: DIFlagPrototyped, spFlags: 0)
!564 = !DIImportedEntity(tag: DW_TAG_imported_declaration, scope: !2, entity: !565, file: !368, line: 199)
!565 = !DISubprogram(name: "wmemcpy", scope: !374, file: !374, line: 262, type: !516, flags: DIFlagPrototyped, spFlags: 0)
!566 = !DIImportedEntity(tag: DW_TAG_imported_declaration, scope: !2, entity: !567, file: !368, line: 200)
!567 = !DISubprogram(name: "wmemmove", scope: !374, file: !374, line: 267, type: !568, flags: DIFlagPrototyped, spFlags: 0)
!568 = !DISubroutineType(types: !569)
!569 = !{!150, !150, !198, !101}
!570 = !DIImportedEntity(tag: DW_TAG_imported_declaration, scope: !2, entity: !571, file: !368, line: 201)
!571 = !DISubprogram(name: "wmemset", scope: !374, file: !374, line: 271, type: !572, flags: DIFlagPrototyped, spFlags: 0)
!572 = !DISubroutineType(types: !573)
!573 = !{!150, !150, !151, !101}
!574 = !DIImportedEntity(tag: DW_TAG_imported_declaration, scope: !2, entity: !575, file: !368, line: 202)
!575 = !DISubprogram(name: "wprintf", scope: !374, file: !374, line: 587, type: !576, flags: DIFlagPrototyped, spFlags: 0)
!576 = !DISubroutineType(types: !577)
!577 = !{!11, !197, null}
!578 = !DIImportedEntity(tag: DW_TAG_imported_declaration, scope: !2, entity: !579, file: !368, line: 203)
!579 = !DISubprogram(name: "wscanf", scope: !374, file: !374, line: 628, type: !576, flags: DIFlagPrototyped, spFlags: 0)
!580 = !DIImportedEntity(tag: DW_TAG_imported_declaration, scope: !2, entity: !581, file: !368, line: 204)
!581 = !DISubprogram(name: "wcschr", scope: !374, file: !374, line: 164, type: !582, flags: DIFlagPrototyped, spFlags: 0)
!582 = !DISubroutineType(types: !583)
!583 = !{!150, !198, !151}
!584 = !DIImportedEntity(tag: DW_TAG_imported_declaration, scope: !2, entity: !585, file: !368, line: 205)
!585 = !DISubprogram(name: "wcspbrk", scope: !374, file: !374, line: 201, type: !586, flags: DIFlagPrototyped, spFlags: 0)
!586 = !DISubroutineType(types: !587)
!587 = !{!150, !198, !198}
!588 = !DIImportedEntity(tag: DW_TAG_imported_declaration, scope: !2, entity: !589, file: !368, line: 206)
!589 = !DISubprogram(name: "wcsrchr", scope: !374, file: !374, line: 174, type: !582, flags: DIFlagPrototyped, spFlags: 0)
!590 = !DIImportedEntity(tag: DW_TAG_imported_declaration, scope: !2, entity: !591, file: !368, line: 207)
!591 = !DISubprogram(name: "wcsstr", scope: !374, file: !374, line: 212, type: !586, flags: DIFlagPrototyped, spFlags: 0)
!592 = !DIImportedEntity(tag: DW_TAG_imported_declaration, scope: !2, entity: !593, file: !368, line: 208)
!593 = !DISubprogram(name: "wmemchr", scope: !374, file: !374, line: 253, type: !594, flags: DIFlagPrototyped, spFlags: 0)
!594 = !DISubroutineType(types: !595)
!595 = !{!150, !198, !151, !101}
!596 = !DIImportedEntity(tag: DW_TAG_imported_declaration, scope: !205, entity: !597, file: !368, line: 248)
!597 = !DISubprogram(name: "wcstold", scope: !374, file: !374, line: 384, type: !598, flags: DIFlagPrototyped, spFlags: 0)
!598 = !DISubroutineType(types: !599)
!599 = !{!244, !197, !536}
!600 = !DIImportedEntity(tag: DW_TAG_imported_declaration, scope: !205, entity: !601, file: !368, line: 257)
!601 = !DISubprogram(name: "wcstoll", scope: !374, file: !374, line: 441, type: !602, flags: DIFlagPrototyped, spFlags: 0)
!602 = !DISubroutineType(types: !603)
!603 = !{!210, !197, !536, !11}
!604 = !DIImportedEntity(tag: DW_TAG_imported_declaration, scope: !205, entity: !605, file: !368, line: 258)
!605 = !DISubprogram(name: "wcstoull", scope: !374, file: !374, line: 448, type: !606, flags: DIFlagPrototyped, spFlags: 0)
!606 = !DISubroutineType(types: !607)
!607 = !{!234, !197, !536, !11}
!608 = !DIImportedEntity(tag: DW_TAG_imported_declaration, scope: !2, entity: !597, file: !368, line: 264)
!609 = !DIImportedEntity(tag: DW_TAG_imported_declaration, scope: !2, entity: !601, file: !368, line: 265)
!610 = !DIImportedEntity(tag: DW_TAG_imported_declaration, scope: !2, entity: !605, file: !368, line: 266)
!611 = !DIImportedEntity(tag: DW_TAG_imported_declaration, scope: !2, entity: !539, file: !368, line: 280)
!612 = !DIImportedEntity(tag: DW_TAG_imported_declaration, scope: !2, entity: !467, file: !368, line: 283)
!613 = !DIImportedEntity(tag: DW_TAG_imported_declaration, scope: !2, entity: !473, file: !368, line: 286)
!614 = !DIImportedEntity(tag: DW_TAG_imported_declaration, scope: !2, entity: !481, file: !368, line: 289)
!615 = !DIImportedEntity(tag: DW_TAG_imported_declaration, scope: !2, entity: !597, file: !368, line: 293)
!616 = !DIImportedEntity(tag: DW_TAG_imported_declaration, scope: !2, entity: !601, file: !368, line: 294)
!617 = !DIImportedEntity(tag: DW_TAG_imported_declaration, scope: !2, entity: !605, file: !368, line: 295)
!618 = !DIImportedEntity(tag: DW_TAG_imported_module, scope: !619, entity: !620, file: !621, line: 58)
!619 = !DINamespace(name: "__gnu_debug", scope: null)
!620 = !DINamespace(name: "__debug", scope: !2)
!621 = !DIFile(filename: "/usr/bin/../lib/gcc/x86_64-linux-gnu/8/../../../../include/c++/8/debug/debug.h", directory: "")
!622 = !DIImportedEntity(tag: DW_TAG_imported_declaration, scope: !2, entity: !623, file: !628, line: 48)
!623 = !DIDerivedType(tag: DW_TAG_typedef, name: "int8_t", file: !624, line: 24, baseType: !625)
!624 = !DIFile(filename: "/usr/include/x86_64-linux-gnu/bits/stdint-intn.h", directory: "")
!625 = !DIDerivedType(tag: DW_TAG_typedef, name: "__int8_t", file: !626, line: 36, baseType: !627)
!626 = !DIFile(filename: "/usr/include/x86_64-linux-gnu/bits/types.h", directory: "")
!627 = !DIBasicType(name: "signed char", size: 8, encoding: DW_ATE_signed_char)
!628 = !DIFile(filename: "/usr/bin/../lib/gcc/x86_64-linux-gnu/8/../../../../include/c++/8/cstdint", directory: "")
!629 = !DIImportedEntity(tag: DW_TAG_imported_declaration, scope: !2, entity: !630, file: !628, line: 49)
!630 = !DIDerivedType(tag: DW_TAG_typedef, name: "int16_t", file: !624, line: 25, baseType: !631)
!631 = !DIDerivedType(tag: DW_TAG_typedef, name: "__int16_t", file: !626, line: 38, baseType: !632)
!632 = !DIBasicType(name: "short", size: 16, encoding: DW_ATE_signed)
!633 = !DIImportedEntity(tag: DW_TAG_imported_declaration, scope: !2, entity: !634, file: !628, line: 50)
!634 = !DIDerivedType(tag: DW_TAG_typedef, name: "int32_t", file: !624, line: 26, baseType: !635)
!635 = !DIDerivedType(tag: DW_TAG_typedef, name: "__int32_t", file: !626, line: 40, baseType: !11)
!636 = !DIImportedEntity(tag: DW_TAG_imported_declaration, scope: !2, entity: !637, file: !628, line: 51)
!637 = !DIDerivedType(tag: DW_TAG_typedef, name: "int64_t", file: !624, line: 27, baseType: !638)
!638 = !DIDerivedType(tag: DW_TAG_typedef, name: "__int64_t", file: !626, line: 43, baseType: !66)
!639 = !DIImportedEntity(tag: DW_TAG_imported_declaration, scope: !2, entity: !640, file: !628, line: 53)
!640 = !DIDerivedType(tag: DW_TAG_typedef, name: "int_fast8_t", file: !641, line: 68, baseType: !627)
!641 = !DIFile(filename: "/usr/include/stdint.h", directory: "")
!642 = !DIImportedEntity(tag: DW_TAG_imported_declaration, scope: !2, entity: !643, file: !628, line: 54)
!643 = !DIDerivedType(tag: DW_TAG_typedef, name: "int_fast16_t", file: !641, line: 70, baseType: !66)
!644 = !DIImportedEntity(tag: DW_TAG_imported_declaration, scope: !2, entity: !645, file: !628, line: 55)
!645 = !DIDerivedType(tag: DW_TAG_typedef, name: "int_fast32_t", file: !641, line: 71, baseType: !66)
!646 = !DIImportedEntity(tag: DW_TAG_imported_declaration, scope: !2, entity: !647, file: !628, line: 56)
!647 = !DIDerivedType(tag: DW_TAG_typedef, name: "int_fast64_t", file: !641, line: 72, baseType: !66)
!648 = !DIImportedEntity(tag: DW_TAG_imported_declaration, scope: !2, entity: !649, file: !628, line: 58)
!649 = !DIDerivedType(tag: DW_TAG_typedef, name: "int_least8_t", file: !641, line: 43, baseType: !627)
!650 = !DIImportedEntity(tag: DW_TAG_imported_declaration, scope: !2, entity: !651, file: !628, line: 59)
!651 = !DIDerivedType(tag: DW_TAG_typedef, name: "int_least16_t", file: !641, line: 44, baseType: !632)
!652 = !DIImportedEntity(tag: DW_TAG_imported_declaration, scope: !2, entity: !653, file: !628, line: 60)
!653 = !DIDerivedType(tag: DW_TAG_typedef, name: "int_least32_t", file: !641, line: 45, baseType: !11)
!654 = !DIImportedEntity(tag: DW_TAG_imported_declaration, scope: !2, entity: !655, file: !628, line: 61)
!655 = !DIDerivedType(tag: DW_TAG_typedef, name: "int_least64_t", file: !641, line: 47, baseType: !66)
!656 = !DIImportedEntity(tag: DW_TAG_imported_declaration, scope: !2, entity: !657, file: !628, line: 63)
!657 = !DIDerivedType(tag: DW_TAG_typedef, name: "intmax_t", file: !641, line: 111, baseType: !658)
!658 = !DIDerivedType(tag: DW_TAG_typedef, name: "__intmax_t", file: !626, line: 61, baseType: !66)
!659 = !DIImportedEntity(tag: DW_TAG_imported_declaration, scope: !2, entity: !660, file: !628, line: 64)
!660 = !DIDerivedType(tag: DW_TAG_typedef, name: "intptr_t", file: !641, line: 97, baseType: !66)
!661 = !DIImportedEntity(tag: DW_TAG_imported_declaration, scope: !2, entity: !662, file: !628, line: 66)
!662 = !DIDerivedType(tag: DW_TAG_typedef, name: "uint8_t", file: !663, line: 24, baseType: !664)
!663 = !DIFile(filename: "/usr/include/x86_64-linux-gnu/bits/stdint-uintn.h", directory: "")
!664 = !DIDerivedType(tag: DW_TAG_typedef, name: "__uint8_t", file: !626, line: 37, baseType: !665)
!665 = !DIBasicType(name: "unsigned char", size: 8, encoding: DW_ATE_unsigned_char)
!666 = !DIImportedEntity(tag: DW_TAG_imported_declaration, scope: !2, entity: !667, file: !628, line: 67)
!667 = !DIDerivedType(tag: DW_TAG_typedef, name: "uint16_t", file: !663, line: 25, baseType: !668)
!668 = !DIDerivedType(tag: DW_TAG_typedef, name: "__uint16_t", file: !626, line: 39, baseType: !669)
!669 = !DIBasicType(name: "unsigned short", size: 16, encoding: DW_ATE_unsigned)
!670 = !DIImportedEntity(tag: DW_TAG_imported_declaration, scope: !2, entity: !671, file: !628, line: 68)
!671 = !DIDerivedType(tag: DW_TAG_typedef, name: "uint32_t", file: !663, line: 26, baseType: !672)
!672 = !DIDerivedType(tag: DW_TAG_typedef, name: "__uint32_t", file: !626, line: 41, baseType: !175)
!673 = !DIImportedEntity(tag: DW_TAG_imported_declaration, scope: !2, entity: !674, file: !628, line: 69)
!674 = !DIDerivedType(tag: DW_TAG_typedef, name: "uint64_t", file: !663, line: 27, baseType: !675)
!675 = !DIDerivedType(tag: DW_TAG_typedef, name: "__uint64_t", file: !626, line: 44, baseType: !103)
!676 = !DIImportedEntity(tag: DW_TAG_imported_declaration, scope: !2, entity: !677, file: !628, line: 71)
!677 = !DIDerivedType(tag: DW_TAG_typedef, name: "uint_fast8_t", file: !641, line: 81, baseType: !665)
!678 = !DIImportedEntity(tag: DW_TAG_imported_declaration, scope: !2, entity: !679, file: !628, line: 72)
!679 = !DIDerivedType(tag: DW_TAG_typedef, name: "uint_fast16_t", file: !641, line: 83, baseType: !103)
!680 = !DIImportedEntity(tag: DW_TAG_imported_declaration, scope: !2, entity: !681, file: !628, line: 73)
!681 = !DIDerivedType(tag: DW_TAG_typedef, name: "uint_fast32_t", file: !641, line: 84, baseType: !103)
!682 = !DIImportedEntity(tag: DW_TAG_imported_declaration, scope: !2, entity: !683, file: !628, line: 74)
!683 = !DIDerivedType(tag: DW_TAG_typedef, name: "uint_fast64_t", file: !641, line: 85, baseType: !103)
!684 = !DIImportedEntity(tag: DW_TAG_imported_declaration, scope: !2, entity: !685, file: !628, line: 76)
!685 = !DIDerivedType(tag: DW_TAG_typedef, name: "uint_least8_t", file: !641, line: 54, baseType: !665)
!686 = !DIImportedEntity(tag: DW_TAG_imported_declaration, scope: !2, entity: !687, file: !628, line: 77)
!687 = !DIDerivedType(tag: DW_TAG_typedef, name: "uint_least16_t", file: !641, line: 55, baseType: !669)
!688 = !DIImportedEntity(tag: DW_TAG_imported_declaration, scope: !2, entity: !689, file: !628, line: 78)
!689 = !DIDerivedType(tag: DW_TAG_typedef, name: "uint_least32_t", file: !641, line: 56, baseType: !175)
!690 = !DIImportedEntity(tag: DW_TAG_imported_declaration, scope: !2, entity: !691, file: !628, line: 79)
!691 = !DIDerivedType(tag: DW_TAG_typedef, name: "uint_least64_t", file: !641, line: 58, baseType: !103)
!692 = !DIImportedEntity(tag: DW_TAG_imported_declaration, scope: !2, entity: !693, file: !628, line: 81)
!693 = !DIDerivedType(tag: DW_TAG_typedef, name: "uintmax_t", file: !641, line: 112, baseType: !694)
!694 = !DIDerivedType(tag: DW_TAG_typedef, name: "__uintmax_t", file: !626, line: 62, baseType: !103)
!695 = !DIImportedEntity(tag: DW_TAG_imported_declaration, scope: !2, entity: !696, file: !628, line: 82)
!696 = !DIDerivedType(tag: DW_TAG_typedef, name: "uintptr_t", file: !641, line: 100, baseType: !103)
!697 = !DIImportedEntity(tag: DW_TAG_imported_declaration, scope: !2, entity: !698, file: !700, line: 53)
!698 = !DICompositeType(tag: DW_TAG_structure_type, name: "lconv", file: !699, line: 51, flags: DIFlagFwdDecl, identifier: "_ZTS5lconv")
!699 = !DIFile(filename: "/usr/include/locale.h", directory: "")
!700 = !DIFile(filename: "/usr/bin/../lib/gcc/x86_64-linux-gnu/8/../../../../include/c++/8/clocale", directory: "")
!701 = !DIImportedEntity(tag: DW_TAG_imported_declaration, scope: !2, entity: !702, file: !700, line: 54)
!702 = !DISubprogram(name: "setlocale", scope: !699, file: !699, line: 122, type: !703, flags: DIFlagPrototyped, spFlags: 0)
!703 = !DISubroutineType(types: !704)
!704 = !{!128, !11, !84}
!705 = !DIImportedEntity(tag: DW_TAG_imported_declaration, scope: !2, entity: !706, file: !700, line: 55)
!706 = !DISubprogram(name: "localeconv", scope: !699, file: !699, line: 125, type: !707, flags: DIFlagPrototyped, spFlags: 0)
!707 = !DISubroutineType(types: !708)
!708 = !{!709}
!709 = !DIDerivedType(tag: DW_TAG_pointer_type, baseType: !698, size: 64)
!710 = !DIImportedEntity(tag: DW_TAG_imported_declaration, scope: !2, entity: !711, file: !713, line: 64)
!711 = !DISubprogram(name: "isalnum", scope: !712, file: !712, line: 108, type: !54, flags: DIFlagPrototyped, spFlags: 0)
!712 = !DIFile(filename: "/usr/include/ctype.h", directory: "")
!713 = !DIFile(filename: "/usr/bin/../lib/gcc/x86_64-linux-gnu/8/../../../../include/c++/8/cctype", directory: "")
!714 = !DIImportedEntity(tag: DW_TAG_imported_declaration, scope: !2, entity: !715, file: !713, line: 65)
!715 = !DISubprogram(name: "isalpha", scope: !712, file: !712, line: 109, type: !54, flags: DIFlagPrototyped, spFlags: 0)
!716 = !DIImportedEntity(tag: DW_TAG_imported_declaration, scope: !2, entity: !717, file: !713, line: 66)
!717 = !DISubprogram(name: "iscntrl", scope: !712, file: !712, line: 110, type: !54, flags: DIFlagPrototyped, spFlags: 0)
!718 = !DIImportedEntity(tag: DW_TAG_imported_declaration, scope: !2, entity: !719, file: !713, line: 67)
!719 = !DISubprogram(name: "isdigit", scope: !712, file: !712, line: 111, type: !54, flags: DIFlagPrototyped, spFlags: 0)
!720 = !DIImportedEntity(tag: DW_TAG_imported_declaration, scope: !2, entity: !721, file: !713, line: 68)
!721 = !DISubprogram(name: "isgraph", scope: !712, file: !712, line: 113, type: !54, flags: DIFlagPrototyped, spFlags: 0)
!722 = !DIImportedEntity(tag: DW_TAG_imported_declaration, scope: !2, entity: !723, file: !713, line: 69)
!723 = !DISubprogram(name: "islower", scope: !712, file: !712, line: 112, type: !54, flags: DIFlagPrototyped, spFlags: 0)
!724 = !DIImportedEntity(tag: DW_TAG_imported_declaration, scope: !2, entity: !725, file: !713, line: 70)
!725 = !DISubprogram(name: "isprint", scope: !712, file: !712, line: 114, type: !54, flags: DIFlagPrototyped, spFlags: 0)
!726 = !DIImportedEntity(tag: DW_TAG_imported_declaration, scope: !2, entity: !727, file: !713, line: 71)
!727 = !DISubprogram(name: "ispunct", scope: !712, file: !712, line: 115, type: !54, flags: DIFlagPrototyped, spFlags: 0)
!728 = !DIImportedEntity(tag: DW_TAG_imported_declaration, scope: !2, entity: !729, file: !713, line: 72)
!729 = !DISubprogram(name: "isspace", scope: !712, file: !712, line: 116, type: !54, flags: DIFlagPrototyped, spFlags: 0)
!730 = !DIImportedEntity(tag: DW_TAG_imported_declaration, scope: !2, entity: !731, file: !713, line: 73)
!731 = !DISubprogram(name: "isupper", scope: !712, file: !712, line: 117, type: !54, flags: DIFlagPrototyped, spFlags: 0)
!732 = !DIImportedEntity(tag: DW_TAG_imported_declaration, scope: !2, entity: !733, file: !713, line: 74)
!733 = !DISubprogram(name: "isxdigit", scope: !712, file: !712, line: 118, type: !54, flags: DIFlagPrototyped, spFlags: 0)
!734 = !DIImportedEntity(tag: DW_TAG_imported_declaration, scope: !2, entity: !735, file: !713, line: 75)
!735 = !DISubprogram(name: "tolower", scope: !712, file: !712, line: 122, type: !54, flags: DIFlagPrototyped, spFlags: 0)
!736 = !DIImportedEntity(tag: DW_TAG_imported_declaration, scope: !2, entity: !737, file: !713, line: 76)
!737 = !DISubprogram(name: "toupper", scope: !712, file: !712, line: 125, type: !54, flags: DIFlagPrototyped, spFlags: 0)
!738 = !DIImportedEntity(tag: DW_TAG_imported_declaration, scope: !2, entity: !739, file: !713, line: 87)
!739 = !DISubprogram(name: "isblank", scope: !712, file: !712, line: 130, type: !54, flags: DIFlagPrototyped, spFlags: 0)
!740 = !DIImportedEntity(tag: DW_TAG_imported_declaration, scope: !205, entity: !741, file: !742, line: 44)
!741 = !DIDerivedType(tag: DW_TAG_typedef, name: "size_t", scope: !2, file: !321, line: 238, baseType: !103)
!742 = !DIFile(filename: "/usr/bin/../lib/gcc/x86_64-linux-gnu/8/../../../../include/c++/8/ext/new_allocator.h", directory: "")
!743 = !DIImportedEntity(tag: DW_TAG_imported_declaration, scope: !205, entity: !744, file: !742, line: 45)
!744 = !DIDerivedType(tag: DW_TAG_typedef, name: "ptrdiff_t", scope: !2, file: !321, line: 239, baseType: !66)
!745 = !DIImportedEntity(tag: DW_TAG_imported_declaration, scope: !2, entity: !746, file: !748, line: 98)
!746 = !DIDerivedType(tag: DW_TAG_typedef, name: "FILE", file: !747, line: 7, baseType: !384)
!747 = !DIFile(filename: "/usr/include/x86_64-linux-gnu/bits/types/FILE.h", directory: "")
!748 = !DIFile(filename: "/usr/bin/../lib/gcc/x86_64-linux-gnu/8/../../../../include/c++/8/cstdio", directory: "")
!749 = !DIImportedEntity(tag: DW_TAG_imported_declaration, scope: !2, entity: !750, file: !748, line: 99)
!750 = !DIDerivedType(tag: DW_TAG_typedef, name: "fpos_t", file: !751, line: 78, baseType: !752)
!751 = !DIFile(filename: "/usr/include/stdio.h", directory: "")
!752 = !DIDerivedType(tag: DW_TAG_typedef, name: "_G_fpos_t", file: !753, line: 30, baseType: !754)
!753 = !DIFile(filename: "/usr/include/x86_64-linux-gnu/bits/_G_config.h", directory: "")
!754 = !DICompositeType(tag: DW_TAG_structure_type, file: !753, line: 26, flags: DIFlagFwdDecl, identifier: "_ZTS9_G_fpos_t")
!755 = !DIImportedEntity(tag: DW_TAG_imported_declaration, scope: !2, entity: !756, file: !748, line: 101)
!756 = !DISubprogram(name: "clearerr", scope: !751, file: !751, line: 757, type: !757, flags: DIFlagPrototyped, spFlags: 0)
!757 = !DISubroutineType(types: !758)
!758 = !{null, !759}
!759 = !DIDerivedType(tag: DW_TAG_pointer_type, baseType: !746, size: 64)
!760 = !DIImportedEntity(tag: DW_TAG_imported_declaration, scope: !2, entity: !761, file: !748, line: 102)
!761 = !DISubprogram(name: "fclose", scope: !751, file: !751, line: 199, type: !762, flags: DIFlagPrototyped, spFlags: 0)
!762 = !DISubroutineType(types: !763)
!763 = !{!11, !759}
!764 = !DIImportedEntity(tag: DW_TAG_imported_declaration, scope: !2, entity: !765, file: !748, line: 103)
!765 = !DISubprogram(name: "feof", scope: !751, file: !751, line: 759, type: !762, flags: DIFlagPrototyped, spFlags: 0)
!766 = !DIImportedEntity(tag: DW_TAG_imported_declaration, scope: !2, entity: !767, file: !748, line: 104)
!767 = !DISubprogram(name: "ferror", scope: !751, file: !751, line: 761, type: !762, flags: DIFlagPrototyped, spFlags: 0)
!768 = !DIImportedEntity(tag: DW_TAG_imported_declaration, scope: !2, entity: !769, file: !748, line: 105)
!769 = !DISubprogram(name: "fflush", scope: !751, file: !751, line: 204, type: !762, flags: DIFlagPrototyped, spFlags: 0)
!770 = !DIImportedEntity(tag: DW_TAG_imported_declaration, scope: !2, entity: !771, file: !748, line: 106)
!771 = !DISubprogram(name: "fgetc", scope: !751, file: !751, line: 477, type: !762, flags: DIFlagPrototyped, spFlags: 0)
!772 = !DIImportedEntity(tag: DW_TAG_imported_declaration, scope: !2, entity: !773, file: !748, line: 107)
!773 = !DISubprogram(name: "fgetpos", scope: !751, file: !751, line: 731, type: !774, flags: DIFlagPrototyped, spFlags: 0)
!774 = !DISubroutineType(types: !775)
!775 = !{!11, !776, !777}
!776 = !DIDerivedType(tag: DW_TAG_restrict_type, baseType: !759)
!777 = !DIDerivedType(tag: DW_TAG_restrict_type, baseType: !778)
!778 = !DIDerivedType(tag: DW_TAG_pointer_type, baseType: !750, size: 64)
!779 = !DIImportedEntity(tag: DW_TAG_imported_declaration, scope: !2, entity: !780, file: !748, line: 108)
!780 = !DISubprogram(name: "fgets", scope: !751, file: !751, line: 564, type: !781, flags: DIFlagPrototyped, spFlags: 0)
!781 = !DISubroutineType(types: !782)
!782 = !{!128, !196, !11, !776}
!783 = !DIImportedEntity(tag: DW_TAG_imported_declaration, scope: !2, entity: !784, file: !748, line: 109)
!784 = !DISubprogram(name: "fopen", scope: !751, file: !751, line: 232, type: !785, flags: DIFlagPrototyped, spFlags: 0)
!785 = !DISubroutineType(types: !786)
!786 = !{!759, !152, !152}
!787 = !DIImportedEntity(tag: DW_TAG_imported_declaration, scope: !2, entity: !788, file: !748, line: 110)
!788 = !DISubprogram(name: "fprintf", scope: !751, file: !751, line: 312, type: !789, flags: DIFlagPrototyped, spFlags: 0)
!789 = !DISubroutineType(types: !790)
!790 = !{!11, !776, !152, null}
!791 = !DIImportedEntity(tag: DW_TAG_imported_declaration, scope: !2, entity: !792, file: !748, line: 111)
!792 = !DISubprogram(name: "fputc", scope: !751, file: !751, line: 517, type: !793, flags: DIFlagPrototyped, spFlags: 0)
!793 = !DISubroutineType(types: !794)
!794 = !{!11, !11, !759}
!795 = !DIImportedEntity(tag: DW_TAG_imported_declaration, scope: !2, entity: !796, file: !748, line: 112)
!796 = !DISubprogram(name: "fputs", scope: !751, file: !751, line: 626, type: !797, flags: DIFlagPrototyped, spFlags: 0)
!797 = !DISubroutineType(types: !798)
!798 = !{!11, !152, !776}
!799 = !DIImportedEntity(tag: DW_TAG_imported_declaration, scope: !2, entity: !800, file: !748, line: 113)
!800 = !DISubprogram(name: "fread", scope: !751, file: !751, line: 646, type: !801, flags: DIFlagPrototyped, spFlags: 0)
!801 = !DISubroutineType(types: !802)
!802 = !{!101, !803, !101, !101, !776}
!803 = !DIDerivedType(tag: DW_TAG_restrict_type, baseType: !98)
!804 = !DIImportedEntity(tag: DW_TAG_imported_declaration, scope: !2, entity: !805, file: !748, line: 114)
!805 = !DISubprogram(name: "freopen", scope: !751, file: !751, line: 238, type: !806, flags: DIFlagPrototyped, spFlags: 0)
!806 = !DISubroutineType(types: !807)
!807 = !{!759, !152, !152, !776}
!808 = !DIImportedEntity(tag: DW_TAG_imported_declaration, scope: !2, entity: !809, file: !748, line: 115)
!809 = !DISubprogram(name: "fscanf", scope: !751, file: !751, line: 377, type: !789, flags: DIFlagPrototyped, spFlags: 0)
!810 = !DIImportedEntity(tag: DW_TAG_imported_declaration, scope: !2, entity: !811, file: !748, line: 116)
!811 = !DISubprogram(name: "fseek", scope: !751, file: !751, line: 684, type: !812, flags: DIFlagPrototyped, spFlags: 0)
!812 = !DISubroutineType(types: !813)
!813 = !{!11, !759, !66, !11}
!814 = !DIImportedEntity(tag: DW_TAG_imported_declaration, scope: !2, entity: !815, file: !748, line: 117)
!815 = !DISubprogram(name: "fsetpos", scope: !751, file: !751, line: 736, type: !816, flags: DIFlagPrototyped, spFlags: 0)
!816 = !DISubroutineType(types: !817)
!817 = !{!11, !759, !818}
!818 = !DIDerivedType(tag: DW_TAG_pointer_type, baseType: !819, size: 64)
!819 = !DIDerivedType(tag: DW_TAG_const_type, baseType: !750)
!820 = !DIImportedEntity(tag: DW_TAG_imported_declaration, scope: !2, entity: !821, file: !748, line: 118)
!821 = !DISubprogram(name: "ftell", scope: !751, file: !751, line: 689, type: !822, flags: DIFlagPrototyped, spFlags: 0)
!822 = !DISubroutineType(types: !823)
!823 = !{!66, !759}
!824 = !DIImportedEntity(tag: DW_TAG_imported_declaration, scope: !2, entity: !825, file: !748, line: 119)
!825 = !DISubprogram(name: "fwrite", scope: !751, file: !751, line: 652, type: !826, flags: DIFlagPrototyped, spFlags: 0)
!826 = !DISubroutineType(types: !827)
!827 = !{!101, !828, !101, !101, !776}
!828 = !DIDerivedType(tag: DW_TAG_restrict_type, baseType: !99)
!829 = !DIImportedEntity(tag: DW_TAG_imported_declaration, scope: !2, entity: !830, file: !748, line: 120)
!830 = !DISubprogram(name: "getc", scope: !751, file: !751, line: 478, type: !762, flags: DIFlagPrototyped, spFlags: 0)
!831 = !DIImportedEntity(tag: DW_TAG_imported_declaration, scope: !2, entity: !832, file: !748, line: 121)
!832 = !DISubprogram(name: "getchar", scope: !751, file: !751, line: 484, type: !165, flags: DIFlagPrototyped, spFlags: 0)
!833 = !DIImportedEntity(tag: DW_TAG_imported_declaration, scope: !2, entity: !834, file: !748, line: 126)
!834 = !DISubprogram(name: "perror", scope: !751, file: !751, line: 775, type: !835, flags: DIFlagPrototyped, spFlags: 0)
!835 = !DISubroutineType(types: !836)
!836 = !{null, !84}
!837 = !DIImportedEntity(tag: DW_TAG_imported_declaration, scope: !2, entity: !838, file: !748, line: 127)
!838 = !DISubprogram(name: "printf", scope: !751, file: !751, line: 318, type: !839, flags: DIFlagPrototyped, spFlags: 0)
!839 = !DISubroutineType(types: !840)
!840 = !{!11, !152, null}
!841 = !DIImportedEntity(tag: DW_TAG_imported_declaration, scope: !2, entity: !842, file: !748, line: 128)
!842 = !DISubprogram(name: "putc", scope: !751, file: !751, line: 518, type: !793, flags: DIFlagPrototyped, spFlags: 0)
!843 = !DIImportedEntity(tag: DW_TAG_imported_declaration, scope: !2, entity: !844, file: !748, line: 129)
!844 = !DISubprogram(name: "putchar", scope: !751, file: !751, line: 524, type: !54, flags: DIFlagPrototyped, spFlags: 0)
!845 = !DIImportedEntity(tag: DW_TAG_imported_declaration, scope: !2, entity: !846, file: !748, line: 130)
!846 = !DISubprogram(name: "puts", scope: !751, file: !751, line: 632, type: !88, flags: DIFlagPrototyped, spFlags: 0)
!847 = !DIImportedEntity(tag: DW_TAG_imported_declaration, scope: !2, entity: !848, file: !748, line: 131)
!848 = !DISubprogram(name: "remove", scope: !751, file: !751, line: 144, type: !88, flags: DIFlagPrototyped, spFlags: 0)
!849 = !DIImportedEntity(tag: DW_TAG_imported_declaration, scope: !2, entity: !850, file: !748, line: 132)
!850 = !DISubprogram(name: "rename", scope: !751, file: !751, line: 146, type: !851, flags: DIFlagPrototyped, spFlags: 0)
!851 = !DISubroutineType(types: !852)
!852 = !{!11, !84, !84}
!853 = !DIImportedEntity(tag: DW_TAG_imported_declaration, scope: !2, entity: !854, file: !748, line: 133)
!854 = !DISubprogram(name: "rewind", scope: !751, file: !751, line: 694, type: !757, flags: DIFlagPrototyped, spFlags: 0)
!855 = !DIImportedEntity(tag: DW_TAG_imported_declaration, scope: !2, entity: !856, file: !748, line: 134)
!856 = !DISubprogram(name: "scanf", scope: !751, file: !751, line: 383, type: !839, flags: DIFlagPrototyped, spFlags: 0)
!857 = !DIImportedEntity(tag: DW_TAG_imported_declaration, scope: !2, entity: !858, file: !748, line: 135)
!858 = !DISubprogram(name: "setbuf", scope: !751, file: !751, line: 290, type: !859, flags: DIFlagPrototyped, spFlags: 0)
!859 = !DISubroutineType(types: !860)
!860 = !{null, !776, !196}
!861 = !DIImportedEntity(tag: DW_TAG_imported_declaration, scope: !2, entity: !862, file: !748, line: 136)
!862 = !DISubprogram(name: "setvbuf", scope: !751, file: !751, line: 294, type: !863, flags: DIFlagPrototyped, spFlags: 0)
!863 = !DISubroutineType(types: !864)
!864 = !{!11, !776, !196, !11, !101}
!865 = !DIImportedEntity(tag: DW_TAG_imported_declaration, scope: !2, entity: !866, file: !748, line: 137)
!866 = !DISubprogram(name: "sprintf", scope: !751, file: !751, line: 320, type: !867, flags: DIFlagPrototyped, spFlags: 0)
!867 = !DISubroutineType(types: !868)
!868 = !{!11, !196, !152, null}
!869 = !DIImportedEntity(tag: DW_TAG_imported_declaration, scope: !2, entity: !870, file: !748, line: 138)
!870 = !DISubprogram(name: "sscanf", scope: !751, file: !751, line: 385, type: !871, flags: DIFlagPrototyped, spFlags: 0)
!871 = !DISubroutineType(types: !872)
!872 = !{!11, !152, !152, null}
!873 = !DIImportedEntity(tag: DW_TAG_imported_declaration, scope: !2, entity: !874, file: !748, line: 139)
!874 = !DISubprogram(name: "tmpfile", scope: !751, file: !751, line: 159, type: !875, flags: DIFlagPrototyped, spFlags: 0)
!875 = !DISubroutineType(types: !876)
!876 = !{!759}
!877 = !DIImportedEntity(tag: DW_TAG_imported_declaration, scope: !2, entity: !878, file: !748, line: 141)
!878 = !DISubprogram(name: "tmpnam", scope: !751, file: !751, line: 173, type: !879, flags: DIFlagPrototyped, spFlags: 0)
!879 = !DISubroutineType(types: !880)
!880 = !{!128, !128}
!881 = !DIImportedEntity(tag: DW_TAG_imported_declaration, scope: !2, entity: !882, file: !748, line: 143)
!882 = !DISubprogram(name: "ungetc", scope: !751, file: !751, line: 639, type: !793, flags: DIFlagPrototyped, spFlags: 0)
!883 = !DIImportedEntity(tag: DW_TAG_imported_declaration, scope: !2, entity: !884, file: !748, line: 144)
!884 = !DISubprogram(name: "vfprintf", scope: !751, file: !751, line: 327, type: !885, flags: DIFlagPrototyped, spFlags: 0)
!885 = !DISubroutineType(types: !886)
!886 = !{!11, !776, !152, !459}
!887 = !DIImportedEntity(tag: DW_TAG_imported_declaration, scope: !2, entity: !888, file: !748, line: 145)
!888 = !DISubprogram(name: "vprintf", scope: !751, file: !751, line: 333, type: !889, flags: DIFlagPrototyped, spFlags: 0)
!889 = !DISubroutineType(types: !890)
!890 = !{!11, !152, !459}
!891 = !DIImportedEntity(tag: DW_TAG_imported_declaration, scope: !2, entity: !892, file: !748, line: 146)
!892 = !DISubprogram(name: "vsprintf", scope: !751, file: !751, line: 335, type: !893, flags: DIFlagPrototyped, spFlags: 0)
!893 = !DISubroutineType(types: !894)
!894 = !{!11, !196, !152, !459}
!895 = !DIImportedEntity(tag: DW_TAG_imported_declaration, scope: !205, entity: !896, file: !748, line: 175)
!896 = !DISubprogram(name: "snprintf", scope: !751, file: !751, line: 340, type: !897, flags: DIFlagPrototyped, spFlags: 0)
!897 = !DISubroutineType(types: !898)
!898 = !{!11, !196, !101, !152, null}
!899 = !DIImportedEntity(tag: DW_TAG_imported_declaration, scope: !205, entity: !900, file: !748, line: 176)
!900 = !DISubprogram(name: "vfscanf", scope: !751, file: !751, line: 420, type: !885, flags: DIFlagPrototyped, spFlags: 0)
!901 = !DIImportedEntity(tag: DW_TAG_imported_declaration, scope: !205, entity: !902, file: !748, line: 177)
!902 = !DISubprogram(name: "vscanf", scope: !751, file: !751, line: 428, type: !889, flags: DIFlagPrototyped, spFlags: 0)
!903 = !DIImportedEntity(tag: DW_TAG_imported_declaration, scope: !205, entity: !904, file: !748, line: 178)
!904 = !DISubprogram(name: "vsnprintf", scope: !751, file: !751, line: 344, type: !905, flags: DIFlagPrototyped, spFlags: 0)
!905 = !DISubroutineType(types: !906)
!906 = !{!11, !196, !101, !152, !459}
!907 = !DIImportedEntity(tag: DW_TAG_imported_declaration, scope: !205, entity: !908, file: !748, line: 179)
!908 = !DISubprogram(name: "vsscanf", scope: !751, file: !751, line: 432, type: !909, flags: DIFlagPrototyped, spFlags: 0)
!909 = !DISubroutineType(types: !910)
!910 = !{!11, !152, !152, !459}
!911 = !DIImportedEntity(tag: DW_TAG_imported_declaration, scope: !2, entity: !896, file: !748, line: 185)
!912 = !DIImportedEntity(tag: DW_TAG_imported_declaration, scope: !2, entity: !900, file: !748, line: 186)
!913 = !DIImportedEntity(tag: DW_TAG_imported_declaration, scope: !2, entity: !902, file: !748, line: 187)
!914 = !DIImportedEntity(tag: DW_TAG_imported_declaration, scope: !2, entity: !904, file: !748, line: 188)
!915 = !DIImportedEntity(tag: DW_TAG_imported_declaration, scope: !2, entity: !908, file: !748, line: 189)
!916 = !DIImportedEntity(tag: DW_TAG_imported_declaration, scope: !2, entity: !917, file: !921, line: 82)
!917 = !DIDerivedType(tag: DW_TAG_typedef, name: "wctrans_t", file: !918, line: 48, baseType: !919)
!918 = !DIFile(filename: "/usr/include/wctype.h", directory: "")
!919 = !DIDerivedType(tag: DW_TAG_pointer_type, baseType: !920, size: 64)
!920 = !DIDerivedType(tag: DW_TAG_const_type, baseType: !635)
!921 = !DIFile(filename: "/usr/bin/../lib/gcc/x86_64-linux-gnu/8/../../../../include/c++/8/cwctype", directory: "")
!922 = !DIImportedEntity(tag: DW_TAG_imported_declaration, scope: !2, entity: !923, file: !921, line: 83)
!923 = !DIDerivedType(tag: DW_TAG_typedef, name: "wctype_t", file: !924, line: 38, baseType: !103)
!924 = !DIFile(filename: "/usr/include/x86_64-linux-gnu/bits/wctype-wchar.h", directory: "")
!925 = !DIImportedEntity(tag: DW_TAG_imported_declaration, scope: !2, entity: !370, file: !921, line: 84)
!926 = !DIImportedEntity(tag: DW_TAG_imported_declaration, scope: !2, entity: !927, file: !921, line: 86)
!927 = !DISubprogram(name: "iswalnum", scope: !924, file: !924, line: 95, type: !560, flags: DIFlagPrototyped, spFlags: 0)
!928 = !DIImportedEntity(tag: DW_TAG_imported_declaration, scope: !2, entity: !929, file: !921, line: 87)
!929 = !DISubprogram(name: "iswalpha", scope: !924, file: !924, line: 101, type: !560, flags: DIFlagPrototyped, spFlags: 0)
!930 = !DIImportedEntity(tag: DW_TAG_imported_declaration, scope: !2, entity: !931, file: !921, line: 89)
!931 = !DISubprogram(name: "iswblank", scope: !924, file: !924, line: 146, type: !560, flags: DIFlagPrototyped, spFlags: 0)
!932 = !DIImportedEntity(tag: DW_TAG_imported_declaration, scope: !2, entity: !933, file: !921, line: 91)
!933 = !DISubprogram(name: "iswcntrl", scope: !924, file: !924, line: 104, type: !560, flags: DIFlagPrototyped, spFlags: 0)
!934 = !DIImportedEntity(tag: DW_TAG_imported_declaration, scope: !2, entity: !935, file: !921, line: 92)
!935 = !DISubprogram(name: "iswctype", scope: !924, file: !924, line: 159, type: !936, flags: DIFlagPrototyped, spFlags: 0)
!936 = !DISubroutineType(types: !937)
!937 = !{!11, !370, !923}
!938 = !DIImportedEntity(tag: DW_TAG_imported_declaration, scope: !2, entity: !939, file: !921, line: 93)
!939 = !DISubprogram(name: "iswdigit", scope: !924, file: !924, line: 108, type: !560, flags: DIFlagPrototyped, spFlags: 0)
!940 = !DIImportedEntity(tag: DW_TAG_imported_declaration, scope: !2, entity: !941, file: !921, line: 94)
!941 = !DISubprogram(name: "iswgraph", scope: !924, file: !924, line: 112, type: !560, flags: DIFlagPrototyped, spFlags: 0)
!942 = !DIImportedEntity(tag: DW_TAG_imported_declaration, scope: !2, entity: !943, file: !921, line: 95)
!943 = !DISubprogram(name: "iswlower", scope: !924, file: !924, line: 117, type: !560, flags: DIFlagPrototyped, spFlags: 0)
!944 = !DIImportedEntity(tag: DW_TAG_imported_declaration, scope: !2, entity: !945, file: !921, line: 96)
!945 = !DISubprogram(name: "iswprint", scope: !924, file: !924, line: 120, type: !560, flags: DIFlagPrototyped, spFlags: 0)
!946 = !DIImportedEntity(tag: DW_TAG_imported_declaration, scope: !2, entity: !947, file: !921, line: 97)
!947 = !DISubprogram(name: "iswpunct", scope: !924, file: !924, line: 125, type: !560, flags: DIFlagPrototyped, spFlags: 0)
!948 = !DIImportedEntity(tag: DW_TAG_imported_declaration, scope: !2, entity: !949, file: !921, line: 98)
!949 = !DISubprogram(name: "iswspace", scope: !924, file: !924, line: 130, type: !560, flags: DIFlagPrototyped, spFlags: 0)
!950 = !DIImportedEntity(tag: DW_TAG_imported_declaration, scope: !2, entity: !951, file: !921, line: 99)
!951 = !DISubprogram(name: "iswupper", scope: !924, file: !924, line: 135, type: !560, flags: DIFlagPrototyped, spFlags: 0)
!952 = !DIImportedEntity(tag: DW_TAG_imported_declaration, scope: !2, entity: !953, file: !921, line: 100)
!953 = !DISubprogram(name: "iswxdigit", scope: !924, file: !924, line: 140, type: !560, flags: DIFlagPrototyped, spFlags: 0)
!954 = !DIImportedEntity(tag: DW_TAG_imported_declaration, scope: !2, entity: !955, file: !921, line: 101)
!955 = !DISubprogram(name: "towctrans", scope: !918, file: !918, line: 55, type: !956, flags: DIFlagPrototyped, spFlags: 0)
!956 = !DISubroutineType(types: !957)
!957 = !{!370, !370, !917}
!958 = !DIImportedEntity(tag: DW_TAG_imported_declaration, scope: !2, entity: !959, file: !921, line: 102)
!959 = !DISubprogram(name: "towlower", scope: !924, file: !924, line: 166, type: !960, flags: DIFlagPrototyped, spFlags: 0)
!960 = !DISubroutineType(types: !961)
!961 = !{!370, !370}
!962 = !DIImportedEntity(tag: DW_TAG_imported_declaration, scope: !2, entity: !963, file: !921, line: 103)
!963 = !DISubprogram(name: "towupper", scope: !924, file: !924, line: 169, type: !960, flags: DIFlagPrototyped, spFlags: 0)
!964 = !DIImportedEntity(tag: DW_TAG_imported_declaration, scope: !2, entity: !965, file: !921, line: 104)
!965 = !DISubprogram(name: "wctrans", scope: !918, file: !918, line: 52, type: !966, flags: DIFlagPrototyped, spFlags: 0)
!966 = !DISubroutineType(types: !967)
!967 = !{!917, !84}
!968 = !DIImportedEntity(tag: DW_TAG_imported_declaration, scope: !2, entity: !969, file: !921, line: 105)
!969 = !DISubprogram(name: "wctype", scope: !924, file: !924, line: 155, type: !970, flags: DIFlagPrototyped, spFlags: 0)
!970 = !DISubroutineType(types: !971)
!971 = !{!923, !84}
!972 = !DIDerivedType(tag: DW_TAG_pointer_type, baseType: !54, size: 64)
!973 = !{i32 2, !"Dwarf Version", i32 4}
!974 = !{i32 2, !"Debug Info Version", i32 3}
!975 = !{i32 1, !"wchar_size", i32 4}
!976 = !{!"clang version 9.0.0-2~ubuntu18.04.2 (tags/RELEASE_900/final)"}
!977 = distinct !DISubprogram(name: "__cxx_global_var_init", scope: !3, file: !3, line: 74, type: !70, scopeLine: 74, spFlags: DISPFlagLocalToUnit | DISPFlagDefinition, unit: !21, retainedNodes: !23)
!978 = !DILocation(line: 74, column: 25, scope: !977)
!979 = distinct !DISubprogram(name: "goodFunc", linkageName: "_Z8goodFuncPKi", scope: !22, file: !22, line: 14, type: !980, scopeLine: 14, flags: DIFlagPrototyped, spFlags: DISPFlagDefinition, unit: !21, retainedNodes: !23)
!980 = !DISubroutineType(types: !981)
!981 = !{!11, !982}
!982 = !DIDerivedType(tag: DW_TAG_pointer_type, baseType: !983, size: 64)
!983 = !DIDerivedType(tag: DW_TAG_const_type, baseType: !11)
!984 = !DILocalVariable(arg: 1, scope: !979, file: !22, line: 14, type: !982)
!985 = !DILocation(line: 14, column: 24, scope: !979)
!986 = !DILocation(line: 14, column: 26, scope: !979)
!987 = !DILocation(line: 14, column: 67, scope: !979)
!988 = distinct !DISubprogram(name: "badFunc", linkageName: "_Z7badFuncPKi", scope: !22, file: !22, line: 15, type: !980, scopeLine: 15, flags: DIFlagPrototyped, spFlags: DISPFlagDefinition, unit: !21, retainedNodes: !23)
!989 = !DILocalVariable(arg: 1, scope: !988, file: !22, line: 15, type: !982)
!990 = !DILocation(line: 15, column: 23, scope: !988)
!991 = !DILocation(line: 15, column: 25, scope: !988)
!992 = !DILocation(line: 15, column: 66, scope: !988)
!993 = distinct !DISubprogram(name: "main", scope: !22, file: !22, line: 18, type: !994, scopeLine: 18, flags: DIFlagPrototyped, spFlags: DISPFlagDefinition, unit: !21, retainedNodes: !23)
!994 = !DISubroutineType(types: !995)
!995 = !{!11, !11, !181}
!996 = !DILocalVariable(name: "argc", arg: 1, scope: !993, file: !22, line: 18, type: !11)
!997 = !DILocation(line: 18, column: 14, scope: !993)
!998 = !DILocalVariable(name: "argv", arg: 2, scope: !993, file: !22, line: 18, type: !181)
!999 = !DILocation(line: 18, column: 26, scope: !993)
!1000 = !DILocation(line: 19, column: 17, scope: !993)
!1001 = !DILocation(line: 19, column: 15, scope: !993)
!1002 = !DILocation(line: 20, column: 17, scope: !993)
!1003 = !DILocation(line: 20, column: 15, scope: !993)
!1004 = !DILocalVariable(name: "res", scope: !993, file: !22, line: 21, type: !11)
!1005 = !DILocation(line: 21, column: 9, scope: !993)
!1006 = !DILocalVariable(name: "temp", scope: !993, file: !22, line: 22, type: !1007)
!1007 = !DICompositeType(tag: DW_TAG_array_type, baseType: !37, size: 128, elements: !1008)
!1008 = !{!1009}
!1009 = !DISubrange(count: 16)
!1010 = !DILocation(line: 22, column: 10, scope: !993)
!1011 = !DILocation(line: 23, column: 24, scope: !993)
!1012 = !DILocation(line: 23, column: 5, scope: !993)
!1013 = !DILocalVariable(name: "buf", scope: !993, file: !22, line: 25, type: !128)
!1014 = !DILocation(line: 25, column: 11, scope: !993)
!1015 = !DILocation(line: 25, column: 17, scope: !993)
!1016 = !DILocation(line: 26, column: 19, scope: !993)
!1017 = !DILocation(line: 26, column: 25, scope: !993)
!1018 = !DILocation(line: 26, column: 5, scope: !993)
!1019 = !DILocation(line: 26, column: 33, scope: !993)
!1020 = !DILocation(line: 28, column: 13, scope: !1021)
!1021 = distinct !DILexicalBlock(scope: !993, file: !22, line: 28, column: 8)
!1022 = !DILocation(line: 28, column: 19, scope: !1021)
!1023 = !DILocation(line: 28, column: 8, scope: !1021)
!1024 = !DILocation(line: 28, column: 8, scope: !993)
!1025 = !DILocation(line: 30, column: 9, scope: !1026)
!1026 = distinct !DILexicalBlock(scope: !1021, file: !22, line: 29, column: 5)
!1027 = !DILocation(line: 31, column: 21, scope: !1026)
!1028 = !DILocation(line: 31, column: 27, scope: !1026)
!1029 = !DILocation(line: 31, column: 15, scope: !1026)
!1030 = !DILocation(line: 31, column: 13, scope: !1026)
!1031 = !DILocation(line: 32, column: 5, scope: !1026)
!1032 = !DILocation(line: 35, column: 9, scope: !1033)
!1033 = distinct !DILexicalBlock(scope: !1021, file: !22, line: 34, column: 5)
!1034 = !DILocation(line: 36, column: 15, scope: !1033)
!1035 = !DILocation(line: 36, column: 21, scope: !1033)
!1036 = !DILocation(line: 36, column: 25, scope: !1033)
!1037 = !DILocalVariable(name: "pp", scope: !1033, file: !22, line: 37, type: !25)
!1038 = !DILocation(line: 37, column: 14, scope: !1033)
!1039 = !DILocation(line: 40, column: 12, scope: !993)
!1040 = !DILocation(line: 40, column: 5, scope: !993)
!1041 = distinct !DISubprogram(linkageName: "_GLOBAL__sub_I_backup_test.cc", scope: !22, file: !22, type: !1042, flags: DIFlagArtificial, spFlags: DISPFlagLocalToUnit | DISPFlagDefinition, unit: !21, retainedNodes: !23)
!1042 = !DISubroutineType(types: !23)
!1043 = !DILocation(line: 0, scope: !1041)
